
usbcan_fw_v2.elf:     file format elf32-littlearm

Sections:
Idx Name          Size      VMA       LMA       File off  Algn
  0 .isr_vector   00000188  08000000  08000000  00010000  2**0
                  CONTENTS, ALLOC, LOAD, READONLY, DATA
  1 .text         00003dd4  08000188  08000188  00010188  2**2
                  CONTENTS, ALLOC, LOAD, READONLY, CODE
  2 .rodata       00000068  08003f5c  08003f5c  00013f5c  2**0
                  CONTENTS, ALLOC, LOAD, READONLY, DATA
  3 .ARM.extab    00000000  08003fc4  08003fc4  000201d0  2**0
                  CONTENTS
  4 .ARM          00000000  08003fc4  08003fc4  000201d0  2**0
                  CONTENTS
  5 .preinit_array 00000000  08003fc4  08003fc4  000201d0  2**0
                  CONTENTS, ALLOC, LOAD, DATA
  6 .init_array   00000004  08003fc4  08003fc4  00013fc4  2**2
                  CONTENTS, ALLOC, LOAD, DATA
  7 .fini_array   00000004  08003fc8  08003fc8  00013fc8  2**2
                  CONTENTS, ALLOC, LOAD, DATA
  8 .data         000001d0  20000000  08003fcc  00020000  2**2
                  CONTENTS, ALLOC, LOAD, DATA
  9 .bss          0000127c  200001d0  0800419c  000201d0  2**2
                  ALLOC
 10 ._user_heap_stack 00003004  2000144c  0800419c  0002144c  2**0
                  ALLOC
 11 .ARM.attributes 00000030  00000000  00000000  000201d0  2**0
                  CONTENTS, READONLY
 12 .comment      00000043  00000000  00000000  00020200  2**0
                  CONTENTS, READONLY
 13 .debug_frame  0000004c  00000000  00000000  00020244  2**2
                  CONTENTS, READONLY, DEBUGGING, OCTETS

Disassembly of section .text:

08000188 <__do_global_dtors_aux>:
 8000188:	b510      	push	{r4, lr}
 800018a:	4c05      	ldr	r4, [pc, #20]	; (80001a0 <__do_global_dtors_aux+0x18>)
 800018c:	7823      	ldrb	r3, [r4, #0]
 800018e:	b933      	cbnz	r3, 800019e <__do_global_dtors_aux+0x16>
 8000190:	4b04      	ldr	r3, [pc, #16]	; (80001a4 <__do_global_dtors_aux+0x1c>)
 8000192:	b113      	cbz	r3, 800019a <__do_global_dtors_aux+0x12>
 8000194:	4804      	ldr	r0, [pc, #16]	; (80001a8 <__do_global_dtors_aux+0x20>)
 8000196:	f3af 8000 	nop.w
 800019a:	2301      	movs	r3, #1
 800019c:	7023      	strb	r3, [r4, #0]
 800019e:	bd10      	pop	{r4, pc}
 80001a0:	200001d0 	.word	0x200001d0
 80001a4:	00000000 	.word	0x00000000
 80001a8:	08003f44 	.word	0x08003f44

080001ac <frame_dummy>:
 80001ac:	b508      	push	{r3, lr}
 80001ae:	4b03      	ldr	r3, [pc, #12]	; (80001bc <frame_dummy+0x10>)
 80001b0:	b11b      	cbz	r3, 80001ba <frame_dummy+0xe>
 80001b2:	4903      	ldr	r1, [pc, #12]	; (80001c0 <frame_dummy+0x14>)
 80001b4:	4803      	ldr	r0, [pc, #12]	; (80001c4 <frame_dummy+0x18>)
 80001b6:	f3af 8000 	nop.w
 80001ba:	bd08      	pop	{r3, pc}
 80001bc:	00000000 	.word	0x00000000
 80001c0:	200001d4 	.word	0x200001d4
 80001c4:	08003f44 	.word	0x08003f44

080001c8 <cobs_encode>:
 80001c8:	b530      	push	{r4, r5, lr}
 80001ca:	1c54      	adds	r4, r2, #1
 80001cc:	2300      	movs	r3, #0
 80001ce:	550b      	strb	r3, [r1, r4]
 80001d0:	4410      	add	r0, r2
 80001d2:	2a00      	cmp	r2, #0
 80001d4:	b2e3      	uxtb	r3, r4
 80001d6:	dc01      	bgt.n	80001dc <cobs_encode+0x14>
 80001d8:	700b      	strb	r3, [r1, #0]
 80001da:	bd30      	pop	{r4, r5, pc}
 80001dc:	f810 5d01 	ldrb.w	r5, [r0, #-1]!
 80001e0:	b915      	cbnz	r5, 80001e8 <cobs_encode+0x20>
 80001e2:	1a9b      	subs	r3, r3, r2
 80001e4:	b2dd      	uxtb	r5, r3
 80001e6:	4614      	mov	r4, r2
 80001e8:	548d      	strb	r5, [r1, r2]
 80001ea:	3a01      	subs	r2, #1
 80001ec:	e7f1      	b.n	80001d2 <cobs_encode+0xa>

080001ee <can_process>:
 80001ee:	b51f      	push	{r0, r1, r2, r3, r4, lr}
 80001f0:	4603      	mov	r3, r0
 80001f2:	4608      	mov	r0, r1
 80001f4:	689a      	ldr	r2, [r3, #8]
 80001f6:	bb02      	cbnz	r2, 800023a <can_process+0x4c>
 80001f8:	78d9      	ldrb	r1, [r3, #3]
 80001fa:	7041      	strb	r1, [r0, #1]
 80001fc:	8859      	ldrh	r1, [r3, #2]
 80001fe:	7081      	strb	r1, [r0, #2]
 8000200:	6819      	ldr	r1, [r3, #0]
 8000202:	0a09      	lsrs	r1, r1, #8
 8000204:	70c1      	strb	r1, [r0, #3]
 8000206:	7819      	ldrb	r1, [r3, #0]
 8000208:	7002      	strb	r2, [r0, #0]
 800020a:	7101      	strb	r1, [r0, #4]
 800020c:	68d9      	ldr	r1, [r3, #12]
 800020e:	2902      	cmp	r1, #2
 8000210:	bf04      	itt	eq
 8000212:	f042 0204 	orreq.w	r2, r2, #4
 8000216:	7002      	strbeq	r2, [r0, #0]
 8000218:	691b      	ldr	r3, [r3, #16]
 800021a:	7143      	strb	r3, [r0, #5]
 800021c:	4669      	mov	r1, sp
 800021e:	220e      	movs	r2, #14
 8000220:	f7ff ffd2 	bl	80001c8 <cobs_encode>
 8000224:	2110      	movs	r1, #16
 8000226:	4668      	mov	r0, sp
 8000228:	f003 fc92 	bl	8003b50 <CDC_Transmit_FS>
 800022c:	b910      	cbnz	r0, 8000234 <can_process+0x46>
 800022e:	2001      	movs	r0, #1
 8000230:	f000 f84e 	bl	80002d0 <led_on>
 8000234:	b005      	add	sp, #20
 8000236:	f85d fb04 	ldr.w	pc, [sp], #4
 800023a:	79da      	ldrb	r2, [r3, #7]
 800023c:	704a      	strb	r2, [r1, #1]
 800023e:	88da      	ldrh	r2, [r3, #6]
 8000240:	708a      	strb	r2, [r1, #2]
 8000242:	685a      	ldr	r2, [r3, #4]
 8000244:	0a12      	lsrs	r2, r2, #8
 8000246:	70ca      	strb	r2, [r1, #3]
 8000248:	7919      	ldrb	r1, [r3, #4]
 800024a:	2202      	movs	r2, #2
 800024c:	e7dc      	b.n	8000208 <can_process+0x1a>
	...

08000250 <usb_to_can>:
 8000250:	b570      	push	{r4, r5, r6, lr}
 8000252:	7803      	ldrb	r3, [r0, #0]
 8000254:	f013 0202 	ands.w	r2, r3, #2
 8000258:	4604      	mov	r4, r0
 800025a:	4b13      	ldr	r3, [pc, #76]	; (80002a8 <usb_to_can+0x58>)
 800025c:	d01d      	beq.n	800029a <usb_to_can+0x4a>
 800025e:	2204      	movs	r2, #4
 8000260:	609a      	str	r2, [r3, #8]
 8000262:	f8d0 2001 	ldr.w	r2, [r0, #1]
 8000266:	ba12      	rev	r2, r2
 8000268:	605a      	str	r2, [r3, #4]
 800026a:	7822      	ldrb	r2, [r4, #0]
 800026c:	480f      	ldr	r0, [pc, #60]	; (80002ac <usb_to_can+0x5c>)
 800026e:	f3c2 0280 	ubfx	r2, r2, #2, #1
 8000272:	0052      	lsls	r2, r2, #1
 8000274:	2500      	movs	r5, #0
 8000276:	60da      	str	r2, [r3, #12]
 8000278:	751d      	strb	r5, [r3, #20]
 800027a:	7962      	ldrb	r2, [r4, #5]
 800027c:	611a      	str	r2, [r3, #16]
 800027e:	f000 fbee 	bl	8000a5e <HAL_CAN_GetTxMailboxesFreeLevel>
 8000282:	b180      	cbz	r0, 80002a6 <usb_to_can+0x56>
 8000284:	4628      	mov	r0, r5
 8000286:	f000 f823 	bl	80002d0 <led_on>
 800028a:	1da2      	adds	r2, r4, #6
 800028c:	4b08      	ldr	r3, [pc, #32]	; (80002b0 <usb_to_can+0x60>)
 800028e:	4906      	ldr	r1, [pc, #24]	; (80002a8 <usb_to_can+0x58>)
 8000290:	4806      	ldr	r0, [pc, #24]	; (80002ac <usb_to_can+0x5c>)
 8000292:	e8bd 4070 	ldmia.w	sp!, {r4, r5, r6, lr}
 8000296:	f000 bb96 	b.w	80009c6 <HAL_CAN_AddTxMessage>
 800029a:	609a      	str	r2, [r3, #8]
 800029c:	f8d0 2001 	ldr.w	r2, [r0, #1]
 80002a0:	ba12      	rev	r2, r2
 80002a2:	601a      	str	r2, [r3, #0]
 80002a4:	e7e1      	b.n	800026a <usb_to_can+0x1a>
 80002a6:	bd70      	pop	{r4, r5, r6, pc}
 80002a8:	200001ec 	.word	0x200001ec
 80002ac:	20000208 	.word	0x20000208
 80002b0:	20000204 	.word	0x20000204

080002b4 <usb_process>:
 80002b4:	7803      	ldrb	r3, [r0, #0]
 80002b6:	091b      	lsrs	r3, r3, #4
 80002b8:	d002      	beq.n	80002c0 <usb_process+0xc>
 80002ba:	2b01      	cmp	r3, #1
 80002bc:	d002      	beq.n	80002c4 <usb_process+0x10>
 80002be:	4770      	bx	lr
 80002c0:	f7ff bfc6 	b.w	8000250 <usb_to_can>
 80002c4:	4801      	ldr	r0, [pc, #4]	; (80002cc <usb_process+0x18>)
 80002c6:	210d      	movs	r1, #13
 80002c8:	f003 bc42 	b.w	8003b50 <CDC_Transmit_FS>
 80002cc:	20000000 	.word	0x20000000

080002d0 <led_on>:
 80002d0:	4b06      	ldr	r3, [pc, #24]	; (80002ec <led_on+0x1c>)
 80002d2:	220c      	movs	r2, #12
 80002d4:	4350      	muls	r0, r2
 80002d6:	b510      	push	{r4, lr}
 80002d8:	181c      	adds	r4, r3, r0
 80002da:	2201      	movs	r2, #1
 80002dc:	88a1      	ldrh	r1, [r4, #4]
 80002de:	5818      	ldr	r0, [r3, r0]
 80002e0:	f000 fe98 	bl	8001014 <HAL_GPIO_WritePin>
 80002e4:	f000 fa52 	bl	800078c <HAL_GetTick>
 80002e8:	60a0      	str	r0, [r4, #8]
 80002ea:	bd10      	pop	{r4, pc}
 80002ec:	20000010 	.word	0x20000010

080002f0 <led_process>:
 80002f0:	b538      	push	{r3, r4, r5, lr}
 80002f2:	4c09      	ldr	r4, [pc, #36]	; (8000318 <led_process+0x28>)
 80002f4:	2504      	movs	r5, #4
 80002f6:	f000 fa49 	bl	800078c <HAL_GetTick>
 80002fa:	68a3      	ldr	r3, [r4, #8]
 80002fc:	1ac0      	subs	r0, r0, r3
 80002fe:	f5b0 7f96 	cmp.w	r0, #300	; 0x12c
 8000302:	d904      	bls.n	800030e <led_process+0x1e>
 8000304:	88a1      	ldrh	r1, [r4, #4]
 8000306:	6820      	ldr	r0, [r4, #0]
 8000308:	2200      	movs	r2, #0
 800030a:	f000 fe83 	bl	8001014 <HAL_GPIO_WritePin>
 800030e:	3d01      	subs	r5, #1
 8000310:	f104 040c 	add.w	r4, r4, #12
 8000314:	d1ef      	bne.n	80002f6 <led_process+0x6>
 8000316:	bd38      	pop	{r3, r4, r5, pc}
 8000318:	20000010 	.word	0x20000010

0800031c <Error_Handler>:
 800031c:	b508      	push	{r3, lr}
 800031e:	b672      	cpsid	i
 8000320:	4c03      	ldr	r4, [pc, #12]	; (8000330 <Error_Handler+0x14>)
 8000322:	2201      	movs	r2, #1
 8000324:	2180      	movs	r1, #128	; 0x80
 8000326:	4620      	mov	r0, r4
 8000328:	f000 fe74 	bl	8001014 <HAL_GPIO_WritePin>
 800032c:	e7f9      	b.n	8000322 <Error_Handler+0x6>
 800032e:	bf00      	nop
 8000330:	48000400 	.word	0x48000400

08000334 <SystemClock_Config>:
 8000334:	b510      	push	{r4, lr}
 8000336:	b09c      	sub	sp, #112	; 0x70
 8000338:	2214      	movs	r2, #20
 800033a:	2100      	movs	r1, #0
 800033c:	a807      	add	r0, sp, #28
 800033e:	f003 fdd4 	bl	8003eea <memset>
 8000342:	2214      	movs	r2, #20
 8000344:	2100      	movs	r1, #0
 8000346:	4668      	mov	r0, sp
 8000348:	f003 fdcf 	bl	8003eea <memset>
 800034c:	2234      	movs	r2, #52	; 0x34
 800034e:	2100      	movs	r1, #0
 8000350:	a80f      	add	r0, sp, #60	; 0x3c
 8000352:	f003 fdca 	bl	8003eea <memset>
 8000356:	2402      	movs	r4, #2
 8000358:	f44f 3380 	mov.w	r3, #65536	; 0x10000
 800035c:	2201      	movs	r2, #1
 800035e:	e9cd 2305 	strd	r2, r3, [sp, #20]
 8000362:	e9cd 430c 	strd	r4, r3, [sp, #48]	; 0x30
 8000366:	a805      	add	r0, sp, #20
 8000368:	f44f 13e0 	mov.w	r3, #1835008	; 0x1c0000
 800036c:	9209      	str	r2, [sp, #36]	; 0x24
 800036e:	930e      	str	r3, [sp, #56]	; 0x38
 8000370:	f001 fcbe 	bl	8001cf0 <HAL_RCC_OscConfig>
 8000374:	b108      	cbz	r0, 800037a <SystemClock_Config+0x46>
 8000376:	f7ff ffd1 	bl	800031c <Error_Handler>
 800037a:	230f      	movs	r3, #15
 800037c:	e9cd 3400 	strd	r3, r4, [sp]
 8000380:	f44f 6380 	mov.w	r3, #1024	; 0x400
 8000384:	e9cd 3003 	strd	r3, r0, [sp, #12]
 8000388:	9002      	str	r0, [sp, #8]
 800038a:	4621      	mov	r1, r4
 800038c:	4668      	mov	r0, sp
 800038e:	f001 ff3f 	bl	8002210 <HAL_RCC_ClockConfig>
 8000392:	2800      	cmp	r0, #0
 8000394:	d1ef      	bne.n	8000376 <SystemClock_Config+0x42>
 8000396:	f44f 3300 	mov.w	r3, #131072	; 0x20000
 800039a:	901b      	str	r0, [sp, #108]	; 0x6c
 800039c:	a80f      	add	r0, sp, #60	; 0x3c
 800039e:	930f      	str	r3, [sp, #60]	; 0x3c
 80003a0:	f001 ffde 	bl	8002360 <HAL_RCCEx_PeriphCLKConfig>
 80003a4:	2800      	cmp	r0, #0
 80003a6:	d1e6      	bne.n	8000376 <SystemClock_Config+0x42>
 80003a8:	b01c      	add	sp, #112	; 0x70
 80003aa:	bd10      	pop	{r4, pc}

080003ac <main>:
 80003ac:	b580      	push	{r7, lr}
 80003ae:	b08e      	sub	sp, #56	; 0x38
 80003b0:	f000 f9ce 	bl	8000750 <HAL_Init>
 80003b4:	f7ff ffbe 	bl	8000334 <SystemClock_Config>
 80003b8:	2214      	movs	r2, #20
 80003ba:	2100      	movs	r1, #0
 80003bc:	a804      	add	r0, sp, #16
 80003be:	f003 fd94 	bl	8003eea <memset>
 80003c2:	4b48      	ldr	r3, [pc, #288]	; (80004e4 <main+0x138>)
 80003c4:	4c48      	ldr	r4, [pc, #288]	; (80004e8 <main+0x13c>)
 80003c6:	695a      	ldr	r2, [r3, #20]
 80003c8:	f442 0280 	orr.w	r2, r2, #4194304	; 0x400000
 80003cc:	615a      	str	r2, [r3, #20]
 80003ce:	695a      	ldr	r2, [r3, #20]
 80003d0:	f402 0280 	and.w	r2, r2, #4194304	; 0x400000
 80003d4:	9201      	str	r2, [sp, #4]
 80003d6:	9a01      	ldr	r2, [sp, #4]
 80003d8:	695a      	ldr	r2, [r3, #20]
 80003da:	f442 3200 	orr.w	r2, r2, #131072	; 0x20000
 80003de:	615a      	str	r2, [r3, #20]
 80003e0:	695a      	ldr	r2, [r3, #20]
 80003e2:	f402 3200 	and.w	r2, r2, #131072	; 0x20000
 80003e6:	9202      	str	r2, [sp, #8]
 80003e8:	9a02      	ldr	r2, [sp, #8]
 80003ea:	695a      	ldr	r2, [r3, #20]
 80003ec:	f442 2280 	orr.w	r2, r2, #262144	; 0x40000
 80003f0:	615a      	str	r2, [r3, #20]
 80003f2:	695b      	ldr	r3, [r3, #20]
 80003f4:	f403 2380 	and.w	r3, r3, #262144	; 0x40000
 80003f8:	9303      	str	r3, [sp, #12]
 80003fa:	2200      	movs	r2, #0
 80003fc:	f44f 6180 	mov.w	r1, #1024	; 0x400
 8000400:	f04f 4090 	mov.w	r0, #1207959552	; 0x48000000
 8000404:	9b03      	ldr	r3, [sp, #12]
 8000406:	f000 fe05 	bl	8001014 <HAL_GPIO_WritePin>
 800040a:	2200      	movs	r2, #0
 800040c:	4837      	ldr	r0, [pc, #220]	; (80004ec <main+0x140>)
 800040e:	21f0      	movs	r1, #240	; 0xf0
 8000410:	f000 fe00 	bl	8001014 <HAL_GPIO_WritePin>
 8000414:	2702      	movs	r7, #2
 8000416:	f44f 1344 	mov.w	r3, #3211264	; 0x310000
 800041a:	a904      	add	r1, sp, #16
 800041c:	f04f 4090 	mov.w	r0, #1207959552	; 0x48000000
 8000420:	2500      	movs	r5, #0
 8000422:	2601      	movs	r6, #1
 8000424:	e9cd 7304 	strd	r7, r3, [sp, #16]
 8000428:	9706      	str	r7, [sp, #24]
 800042a:	f000 fd29 	bl	8000e80 <HAL_GPIO_Init>
 800042e:	f44f 6380 	mov.w	r3, #1024	; 0x400
 8000432:	a904      	add	r1, sp, #16
 8000434:	f04f 4090 	mov.w	r0, #1207959552	; 0x48000000
 8000438:	e9cd 3604 	strd	r3, r6, [sp, #16]
 800043c:	e9cd 5506 	strd	r5, r5, [sp, #24]
 8000440:	f000 fd1e 	bl	8000e80 <HAL_GPIO_Init>
 8000444:	23f0      	movs	r3, #240	; 0xf0
 8000446:	4829      	ldr	r0, [pc, #164]	; (80004ec <main+0x140>)
 8000448:	a904      	add	r1, sp, #16
 800044a:	e9cd 3604 	strd	r3, r6, [sp, #16]
 800044e:	e9cd 5506 	strd	r5, r5, [sp, #24]
 8000452:	f000 fd15 	bl	8000e80 <HAL_GPIO_Init>
 8000456:	462a      	mov	r2, r5
 8000458:	4631      	mov	r1, r6
 800045a:	2007      	movs	r0, #7
 800045c:	f000 fcbc 	bl	8000dd8 <HAL_NVIC_SetPriority>
 8000460:	2007      	movs	r0, #7
 8000462:	f000 fceb 	bl	8000e3c <HAL_NVIC_EnableIRQ>
 8000466:	f003 fab9 	bl	80039dc <MX_USB_DEVICE_Init>
 800046a:	4b21      	ldr	r3, [pc, #132]	; (80004f0 <main+0x144>)
 800046c:	83a5      	strh	r5, [r4, #28]
 800046e:	e9c4 3700 	strd	r3, r7, [r4]
 8000472:	f44f 2260 	mov.w	r2, #917504	; 0xe0000
 8000476:	f44f 1380 	mov.w	r3, #1048576	; 0x100000
 800047a:	e9c4 2304 	strd	r2, r3, [r4, #16]
 800047e:	4620      	mov	r0, r4
 8000480:	f44f 3380 	mov.w	r3, #65536	; 0x10000
 8000484:	e9c4 5502 	strd	r5, r5, [r4, #8]
 8000488:	61a3      	str	r3, [r4, #24]
 800048a:	f000 f985 	bl	8000798 <HAL_CAN_Init>
 800048e:	4605      	mov	r5, r0
 8000490:	b108      	cbz	r0, 8000496 <main+0xea>
 8000492:	f7ff ff43 	bl	800031c <Error_Handler>
 8000496:	4630      	mov	r0, r6
 8000498:	f7ff ff1a 	bl	80002d0 <led_on>
 800049c:	4638      	mov	r0, r7
 800049e:	f7ff ff17 	bl	80002d0 <led_on>
 80004a2:	2003      	movs	r0, #3
 80004a4:	f7ff ff14 	bl	80002d0 <led_on>
 80004a8:	4628      	mov	r0, r5
 80004aa:	f7ff ff11 	bl	80002d0 <led_on>
 80004ae:	230e      	movs	r3, #14
 80004b0:	a904      	add	r1, sp, #16
 80004b2:	4620      	mov	r0, r4
 80004b4:	e9cd 5504 	strd	r5, r5, [sp, #16]
 80004b8:	e9cd 5506 	strd	r5, r5, [sp, #24]
 80004bc:	e9cd 5508 	strd	r5, r5, [sp, #32]
 80004c0:	e9cd 630c 	strd	r6, r3, [sp, #48]	; 0x30
 80004c4:	960b      	str	r6, [sp, #44]	; 0x2c
 80004c6:	950a      	str	r5, [sp, #40]	; 0x28
 80004c8:	f000 f9e1 	bl	800088e <HAL_CAN_ConfigFilter>
 80004cc:	2800      	cmp	r0, #0
 80004ce:	d1e0      	bne.n	8000492 <main+0xe6>
 80004d0:	4639      	mov	r1, r7
 80004d2:	4620      	mov	r0, r4
 80004d4:	f000 fb53 	bl	8000b7e <HAL_CAN_ActivateNotification>
 80004d8:	2800      	cmp	r0, #0
 80004da:	d1da      	bne.n	8000492 <main+0xe6>
 80004dc:	f000 f888 	bl	80005f0 <main_cpp>
 80004e0:	e7fe      	b.n	80004e0 <main+0x134>
 80004e2:	bf00      	nop
 80004e4:	40021000 	.word	0x40021000
 80004e8:	20000208 	.word	0x20000208
 80004ec:	48000400 	.word	0x48000400
 80004f0:	40006400 	.word	0x40006400

080004f4 <HAL_MspInit>:
 80004f4:	4b0a      	ldr	r3, [pc, #40]	; (8000520 <HAL_MspInit+0x2c>)
 80004f6:	699a      	ldr	r2, [r3, #24]
 80004f8:	f042 0201 	orr.w	r2, r2, #1
 80004fc:	619a      	str	r2, [r3, #24]
 80004fe:	699a      	ldr	r2, [r3, #24]
 8000500:	b082      	sub	sp, #8
 8000502:	f002 0201 	and.w	r2, r2, #1
 8000506:	9200      	str	r2, [sp, #0]
 8000508:	9a00      	ldr	r2, [sp, #0]
 800050a:	69da      	ldr	r2, [r3, #28]
 800050c:	f042 5280 	orr.w	r2, r2, #268435456	; 0x10000000
 8000510:	61da      	str	r2, [r3, #28]
 8000512:	69db      	ldr	r3, [r3, #28]
 8000514:	f003 5380 	and.w	r3, r3, #268435456	; 0x10000000
 8000518:	9301      	str	r3, [sp, #4]
 800051a:	9b01      	ldr	r3, [sp, #4]
 800051c:	b002      	add	sp, #8
 800051e:	4770      	bx	lr
 8000520:	40021000 	.word	0x40021000

08000524 <HAL_CAN_MspInit>:
 8000524:	b510      	push	{r4, lr}
 8000526:	4604      	mov	r4, r0
 8000528:	b088      	sub	sp, #32
 800052a:	2214      	movs	r2, #20
 800052c:	2100      	movs	r1, #0
 800052e:	a803      	add	r0, sp, #12
 8000530:	f003 fcdb 	bl	8003eea <memset>
 8000534:	6822      	ldr	r2, [r4, #0]
 8000536:	4b17      	ldr	r3, [pc, #92]	; (8000594 <HAL_CAN_MspInit+0x70>)
 8000538:	429a      	cmp	r2, r3
 800053a:	d128      	bne.n	800058e <HAL_CAN_MspInit+0x6a>
 800053c:	f503 33d6 	add.w	r3, r3, #109568	; 0x1ac00
 8000540:	2103      	movs	r1, #3
 8000542:	69da      	ldr	r2, [r3, #28]
 8000544:	4814      	ldr	r0, [pc, #80]	; (8000598 <HAL_CAN_MspInit+0x74>)
 8000546:	f042 7200 	orr.w	r2, r2, #33554432	; 0x2000000
 800054a:	61da      	str	r2, [r3, #28]
 800054c:	69da      	ldr	r2, [r3, #28]
 800054e:	f002 7200 	and.w	r2, r2, #33554432	; 0x2000000
 8000552:	9201      	str	r2, [sp, #4]
 8000554:	9a01      	ldr	r2, [sp, #4]
 8000556:	695a      	ldr	r2, [r3, #20]
 8000558:	f442 2280 	orr.w	r2, r2, #262144	; 0x40000
 800055c:	615a      	str	r2, [r3, #20]
 800055e:	695b      	ldr	r3, [r3, #20]
 8000560:	f403 2380 	and.w	r3, r3, #262144	; 0x40000
 8000564:	9302      	str	r3, [sp, #8]
 8000566:	f44f 7240 	mov.w	r2, #768	; 0x300
 800056a:	9b02      	ldr	r3, [sp, #8]
 800056c:	2302      	movs	r3, #2
 800056e:	e9cd 2303 	strd	r2, r3, [sp, #12]
 8000572:	2309      	movs	r3, #9
 8000574:	e9cd 1306 	strd	r1, r3, [sp, #24]
 8000578:	a903      	add	r1, sp, #12
 800057a:	f000 fc81 	bl	8000e80 <HAL_GPIO_Init>
 800057e:	2014      	movs	r0, #20
 8000580:	2200      	movs	r2, #0
 8000582:	2101      	movs	r1, #1
 8000584:	f000 fc28 	bl	8000dd8 <HAL_NVIC_SetPriority>
 8000588:	2014      	movs	r0, #20
 800058a:	f000 fc57 	bl	8000e3c <HAL_NVIC_EnableIRQ>
 800058e:	b008      	add	sp, #32
 8000590:	bd10      	pop	{r4, pc}
 8000592:	bf00      	nop
 8000594:	40006400 	.word	0x40006400
 8000598:	48000400 	.word	0x48000400

0800059c <NMI_Handler>:
 800059c:	e7fe      	b.n	800059c <NMI_Handler>

0800059e <HardFault_Handler>:
 800059e:	e7fe      	b.n	800059e <HardFault_Handler>

080005a0 <MemManage_Handler>:
 80005a0:	e7fe      	b.n	80005a0 <MemManage_Handler>

080005a2 <BusFault_Handler>:
 80005a2:	e7fe      	b.n	80005a2 <BusFault_Handler>

080005a4 <UsageFault_Handler>:
 80005a4:	e7fe      	b.n	80005a4 <UsageFault_Handler>

080005a6 <SVC_Handler>:
 80005a6:	4770      	bx	lr

080005a8 <DebugMon_Handler>:
 80005a8:	4770      	bx	lr

080005aa <PendSV_Handler>:
 80005aa:	4770      	bx	lr

080005ac <SysTick_Handler>:
 80005ac:	f000 b8e2 	b.w	8000774 <HAL_IncTick>

080005b0 <EXTI1_IRQHandler>:
 80005b0:	2002      	movs	r0, #2
 80005b2:	f000 bd35 	b.w	8001020 <HAL_GPIO_EXTI_IRQHandler>
	...

080005b8 <USB_LP_CAN_RX0_IRQHandler>:
 80005b8:	b508      	push	{r3, lr}
 80005ba:	2001      	movs	r0, #1
 80005bc:	f7ff fe88 	bl	80002d0 <led_on>
 80005c0:	e8bd 4008 	ldmia.w	sp!, {r3, lr}
 80005c4:	4801      	ldr	r0, [pc, #4]	; (80005cc <USB_LP_CAN_RX0_IRQHandler+0x14>)
 80005c6:	f000 baf7 	b.w	8000bb8 <HAL_CAN_IRQHandler>
 80005ca:	bf00      	nop
 80005cc:	20000208 	.word	0x20000208

080005d0 <USB_LP_IRQHandler>:
 80005d0:	4801      	ldr	r0, [pc, #4]	; (80005d8 <USB_LP_IRQHandler+0x8>)
 80005d2:	f000 bdb3 	b.w	800113c <HAL_PCD_IRQHandler>
 80005d6:	bf00      	nop
 80005d8:	20000f40 	.word	0x20000f40

080005dc <SystemInit>:
 80005dc:	4a03      	ldr	r2, [pc, #12]	; (80005ec <SystemInit+0x10>)
 80005de:	f8d2 3088 	ldr.w	r3, [r2, #136]	; 0x88
 80005e2:	f443 0370 	orr.w	r3, r3, #15728640	; 0xf00000
 80005e6:	f8c2 3088 	str.w	r3, [r2, #136]	; 0x88
 80005ea:	4770      	bx	lr
 80005ec:	e000ed00 	.word	0xe000ed00

080005f0 <main_cpp>:
 80005f0:	b5f8      	push	{r3, r4, r5, r6, r7, lr}
 80005f2:	4818      	ldr	r0, [pc, #96]	; (8000654 <main_cpp+0x64>)
 80005f4:	4c18      	ldr	r4, [pc, #96]	; (8000658 <main_cpp+0x68>)
 80005f6:	4e17      	ldr	r6, [pc, #92]	; (8000654 <main_cpp+0x64>)
 80005f8:	4f18      	ldr	r7, [pc, #96]	; (800065c <main_cpp+0x6c>)
 80005fa:	f000 f9b6 	bl	800096a <HAL_CAN_Start>
 80005fe:	2500      	movs	r5, #0
 8000600:	6863      	ldr	r3, [r4, #4]
 8000602:	07db      	lsls	r3, r3, #31
 8000604:	d506      	bpl.n	8000614 <main_cpp+0x24>
 8000606:	6823      	ldr	r3, [r4, #0]
 8000608:	f023 0301 	bic.w	r3, r3, #1
 800060c:	6023      	str	r3, [r4, #0]
 800060e:	2001      	movs	r0, #1
 8000610:	f7ff fe5e 	bl	80002d0 <led_on>
 8000614:	b12d      	cbz	r5, 8000622 <main_cpp+0x32>
 8000616:	6a73      	ldr	r3, [r6, #36]	; 0x24
 8000618:	2b20      	cmp	r3, #32
 800061a:	d019      	beq.n	8000650 <main_cpp+0x60>
 800061c:	2b80      	cmp	r3, #128	; 0x80
 800061e:	d114      	bne.n	800064a <main_cpp+0x5a>
 8000620:	e00b      	b.n	800063a <main_cpp+0x4a>
 8000622:	f897 329c 	ldrb.w	r3, [r7, #668]	; 0x29c
 8000626:	3b01      	subs	r3, #1
 8000628:	2b03      	cmp	r3, #3
 800062a:	d80e      	bhi.n	800064a <main_cpp+0x5a>
 800062c:	e8df f003 	tbb	[pc, r3]
 8000630:	02091005 	.word	0x02091005
 8000634:	2002      	movs	r0, #2
 8000636:	f7ff fe4b 	bl	80002d0 <led_on>
 800063a:	2003      	movs	r0, #3
 800063c:	f7ff fe48 	bl	80002d0 <led_on>
 8000640:	e003      	b.n	800064a <main_cpp+0x5a>
 8000642:	2001      	movs	r0, #1
 8000644:	f7ff fe44 	bl	80002d0 <led_on>
 8000648:	2501      	movs	r5, #1
 800064a:	f7ff fe51 	bl	80002f0 <led_process>
 800064e:	e7d7      	b.n	8000600 <main_cpp+0x10>
 8000650:	2002      	movs	r0, #2
 8000652:	e7f3      	b.n	800063c <main_cpp+0x4c>
 8000654:	20000208 	.word	0x20000208
 8000658:	40006400 	.word	0x40006400
 800065c:	20000238 	.word	0x20000238

08000660 <HAL_CAN_RxFifo0MsgPendingCallback>:
 8000660:	b500      	push	{lr}
 8000662:	b08d      	sub	sp, #52	; 0x34
 8000664:	f10d 030a 	add.w	r3, sp, #10
 8000668:	aa05      	add	r2, sp, #20
 800066a:	2100      	movs	r1, #0
 800066c:	f000 fa0b 	bl	8000a86 <HAL_CAN_GetRxMessage>
 8000670:	b918      	cbnz	r0, 800067a <HAL_CAN_RxFifo0MsgPendingCallback+0x1a>
 8000672:	a901      	add	r1, sp, #4
 8000674:	a805      	add	r0, sp, #20
 8000676:	f7ff fdba 	bl	80001ee <can_process>
 800067a:	b00d      	add	sp, #52	; 0x34
 800067c:	f85d fb04 	ldr.w	pc, [sp], #4

08000680 <HAL_GPIO_EXTI_Callback>:
 8000680:	2802      	cmp	r0, #2
 8000682:	b510      	push	{r4, lr}
 8000684:	4604      	mov	r4, r0
 8000686:	d110      	bne.n	80006aa <HAL_GPIO_EXTI_Callback+0x2a>
 8000688:	2003      	movs	r0, #3
 800068a:	f7ff fe21 	bl	80002d0 <led_on>
 800068e:	4621      	mov	r1, r4
 8000690:	f04f 4090 	mov.w	r0, #1207959552	; 0x48000000
 8000694:	f000 fcb8 	bl	8001008 <HAL_GPIO_ReadPin>
 8000698:	2104      	movs	r1, #4
 800069a:	b120      	cbz	r0, 80006a6 <HAL_GPIO_EXTI_Callback+0x26>
 800069c:	4803      	ldr	r0, [pc, #12]	; (80006ac <HAL_GPIO_EXTI_Callback+0x2c>)
 800069e:	e8bd 4010 	ldmia.w	sp!, {r4, lr}
 80006a2:	f003 ba55 	b.w	8003b50 <CDC_Transmit_FS>
 80006a6:	4802      	ldr	r0, [pc, #8]	; (80006b0 <HAL_GPIO_EXTI_Callback+0x30>)
 80006a8:	e7f9      	b.n	800069e <HAL_GPIO_EXTI_Callback+0x1e>
 80006aa:	bd10      	pop	{r4, pc}
 80006ac:	20000048 	.word	0x20000048
 80006b0:	20000044 	.word	0x20000044

080006b4 <Reset_Handler>:
 80006b4:	f8df d034 	ldr.w	sp, [pc, #52]	; 80006ec <LoopForever+0x2>
 80006b8:	480d      	ldr	r0, [pc, #52]	; (80006f0 <LoopForever+0x6>)
 80006ba:	490e      	ldr	r1, [pc, #56]	; (80006f4 <LoopForever+0xa>)
 80006bc:	4a0e      	ldr	r2, [pc, #56]	; (80006f8 <LoopForever+0xe>)
 80006be:	2300      	movs	r3, #0
 80006c0:	e002      	b.n	80006c8 <LoopCopyDataInit>

080006c2 <CopyDataInit>:
 80006c2:	58d4      	ldr	r4, [r2, r3]
 80006c4:	50c4      	str	r4, [r0, r3]
 80006c6:	3304      	adds	r3, #4

080006c8 <LoopCopyDataInit>:
 80006c8:	18c4      	adds	r4, r0, r3
 80006ca:	428c      	cmp	r4, r1
 80006cc:	d3f9      	bcc.n	80006c2 <CopyDataInit>
 80006ce:	4a0b      	ldr	r2, [pc, #44]	; (80006fc <LoopForever+0x12>)
 80006d0:	4c0b      	ldr	r4, [pc, #44]	; (8000700 <LoopForever+0x16>)
 80006d2:	2300      	movs	r3, #0
 80006d4:	e001      	b.n	80006da <LoopFillZerobss>

080006d6 <FillZerobss>:
 80006d6:	6013      	str	r3, [r2, #0]
 80006d8:	3204      	adds	r2, #4

080006da <LoopFillZerobss>:
 80006da:	42a2      	cmp	r2, r4
 80006dc:	d3fb      	bcc.n	80006d6 <FillZerobss>
 80006de:	f7ff ff7d 	bl	80005dc <SystemInit>
 80006e2:	f003 fc0b 	bl	8003efc <__libc_init_array>
 80006e6:	f7ff fe61 	bl	80003ac <main>

080006ea <LoopForever>:
 80006ea:	e7fe      	b.n	80006ea <LoopForever>
 80006ec:	20008000 	.word	0x20008000
 80006f0:	20000000 	.word	0x20000000
 80006f4:	200001d0 	.word	0x200001d0
 80006f8:	08003fcc 	.word	0x08003fcc
 80006fc:	200001d0 	.word	0x200001d0
 8000700:	2000144c 	.word	0x2000144c

08000704 <ADC1_2_IRQHandler>:
 8000704:	e7fe      	b.n	8000704 <ADC1_2_IRQHandler>
	...

08000708 <HAL_InitTick>:
 8000708:	b538      	push	{r3, r4, r5, lr}
 800070a:	4b0e      	ldr	r3, [pc, #56]	; (8000744 <HAL_InitTick+0x3c>)
 800070c:	781a      	ldrb	r2, [r3, #0]
 800070e:	f44f 737a 	mov.w	r3, #1000	; 0x3e8
 8000712:	fbb3 f3f2 	udiv	r3, r3, r2
 8000716:	4a0c      	ldr	r2, [pc, #48]	; (8000748 <HAL_InitTick+0x40>)
 8000718:	4605      	mov	r5, r0
 800071a:	6810      	ldr	r0, [r2, #0]
 800071c:	fbb0 f0f3 	udiv	r0, r0, r3
 8000720:	f000 fb9a 	bl	8000e58 <HAL_SYSTICK_Config>
 8000724:	4604      	mov	r4, r0
 8000726:	b958      	cbnz	r0, 8000740 <HAL_InitTick+0x38>
 8000728:	2d0f      	cmp	r5, #15
 800072a:	d809      	bhi.n	8000740 <HAL_InitTick+0x38>
 800072c:	4602      	mov	r2, r0
 800072e:	4629      	mov	r1, r5
 8000730:	f04f 30ff 	mov.w	r0, #4294967295
 8000734:	f000 fb50 	bl	8000dd8 <HAL_NVIC_SetPriority>
 8000738:	4b04      	ldr	r3, [pc, #16]	; (800074c <HAL_InitTick+0x44>)
 800073a:	4620      	mov	r0, r4
 800073c:	601d      	str	r5, [r3, #0]
 800073e:	bd38      	pop	{r3, r4, r5, pc}
 8000740:	2001      	movs	r0, #1
 8000742:	e7fc      	b.n	800073e <HAL_InitTick+0x36>
 8000744:	2000004c 	.word	0x2000004c
 8000748:	20000040 	.word	0x20000040
 800074c:	20000050 	.word	0x20000050

08000750 <HAL_Init>:
 8000750:	4a07      	ldr	r2, [pc, #28]	; (8000770 <HAL_Init+0x20>)
 8000752:	b508      	push	{r3, lr}
 8000754:	6813      	ldr	r3, [r2, #0]
 8000756:	f043 0310 	orr.w	r3, r3, #16
 800075a:	6013      	str	r3, [r2, #0]
 800075c:	2003      	movs	r0, #3
 800075e:	f000 fb29 	bl	8000db4 <HAL_NVIC_SetPriorityGrouping>
 8000762:	200f      	movs	r0, #15
 8000764:	f7ff ffd0 	bl	8000708 <HAL_InitTick>
 8000768:	f7ff fec4 	bl	80004f4 <HAL_MspInit>
 800076c:	2000      	movs	r0, #0
 800076e:	bd08      	pop	{r3, pc}
 8000770:	40022000 	.word	0x40022000

08000774 <HAL_IncTick>:
 8000774:	4a03      	ldr	r2, [pc, #12]	; (8000784 <HAL_IncTick+0x10>)
 8000776:	4b04      	ldr	r3, [pc, #16]	; (8000788 <HAL_IncTick+0x14>)
 8000778:	6811      	ldr	r1, [r2, #0]
 800077a:	781b      	ldrb	r3, [r3, #0]
 800077c:	440b      	add	r3, r1
 800077e:	6013      	str	r3, [r2, #0]
 8000780:	4770      	bx	lr
 8000782:	bf00      	nop
 8000784:	20000230 	.word	0x20000230
 8000788:	2000004c 	.word	0x2000004c

0800078c <HAL_GetTick>:
 800078c:	4b01      	ldr	r3, [pc, #4]	; (8000794 <HAL_GetTick+0x8>)
 800078e:	6818      	ldr	r0, [r3, #0]
 8000790:	4770      	bx	lr
 8000792:	bf00      	nop
 8000794:	20000230 	.word	0x20000230

08000798 <HAL_CAN_Init>:
 8000798:	b538      	push	{r3, r4, r5, lr}
 800079a:	4604      	mov	r4, r0
 800079c:	2800      	cmp	r0, #0
 800079e:	d06e      	beq.n	800087e <HAL_CAN_Init+0xe6>
 80007a0:	f890 3020 	ldrb.w	r3, [r0, #32]
 80007a4:	b90b      	cbnz	r3, 80007aa <HAL_CAN_Init+0x12>
 80007a6:	f7ff febd 	bl	8000524 <HAL_CAN_MspInit>
 80007aa:	6822      	ldr	r2, [r4, #0]
 80007ac:	6813      	ldr	r3, [r2, #0]
 80007ae:	f043 0301 	orr.w	r3, r3, #1
 80007b2:	6013      	str	r3, [r2, #0]
 80007b4:	f7ff ffea 	bl	800078c <HAL_GetTick>
 80007b8:	4605      	mov	r5, r0
 80007ba:	6823      	ldr	r3, [r4, #0]
 80007bc:	685a      	ldr	r2, [r3, #4]
 80007be:	07d1      	lsls	r1, r2, #31
 80007c0:	d551      	bpl.n	8000866 <HAL_CAN_Init+0xce>
 80007c2:	681a      	ldr	r2, [r3, #0]
 80007c4:	f022 0202 	bic.w	r2, r2, #2
 80007c8:	601a      	str	r2, [r3, #0]
 80007ca:	f7ff ffdf 	bl	800078c <HAL_GetTick>
 80007ce:	4605      	mov	r5, r0
 80007d0:	6823      	ldr	r3, [r4, #0]
 80007d2:	685a      	ldr	r2, [r3, #4]
 80007d4:	0792      	lsls	r2, r2, #30
 80007d6:	d454      	bmi.n	8000882 <HAL_CAN_Init+0xea>
 80007d8:	7e22      	ldrb	r2, [r4, #24]
 80007da:	2a01      	cmp	r2, #1
 80007dc:	681a      	ldr	r2, [r3, #0]
 80007de:	bf0c      	ite	eq
 80007e0:	f042 0280 	orreq.w	r2, r2, #128	; 0x80
 80007e4:	f022 0280 	bicne.w	r2, r2, #128	; 0x80
 80007e8:	601a      	str	r2, [r3, #0]
 80007ea:	7e62      	ldrb	r2, [r4, #25]
 80007ec:	2a01      	cmp	r2, #1
 80007ee:	681a      	ldr	r2, [r3, #0]
 80007f0:	bf0c      	ite	eq
 80007f2:	f042 0240 	orreq.w	r2, r2, #64	; 0x40
 80007f6:	f022 0240 	bicne.w	r2, r2, #64	; 0x40
 80007fa:	601a      	str	r2, [r3, #0]
 80007fc:	7ea2      	ldrb	r2, [r4, #26]
 80007fe:	2a01      	cmp	r2, #1
 8000800:	681a      	ldr	r2, [r3, #0]
 8000802:	bf0c      	ite	eq
 8000804:	f042 0220 	orreq.w	r2, r2, #32
 8000808:	f022 0220 	bicne.w	r2, r2, #32
 800080c:	601a      	str	r2, [r3, #0]
 800080e:	7ee2      	ldrb	r2, [r4, #27]
 8000810:	2a01      	cmp	r2, #1
 8000812:	681a      	ldr	r2, [r3, #0]
 8000814:	bf0c      	ite	eq
 8000816:	f022 0210 	biceq.w	r2, r2, #16
 800081a:	f042 0210 	orrne.w	r2, r2, #16
 800081e:	601a      	str	r2, [r3, #0]
 8000820:	7f22      	ldrb	r2, [r4, #28]
 8000822:	2a01      	cmp	r2, #1
 8000824:	681a      	ldr	r2, [r3, #0]
 8000826:	bf0c      	ite	eq
 8000828:	f042 0208 	orreq.w	r2, r2, #8
 800082c:	f022 0208 	bicne.w	r2, r2, #8
 8000830:	601a      	str	r2, [r3, #0]
 8000832:	7f62      	ldrb	r2, [r4, #29]
 8000834:	2a01      	cmp	r2, #1
 8000836:	681a      	ldr	r2, [r3, #0]
 8000838:	bf0c      	ite	eq
 800083a:	f042 0204 	orreq.w	r2, r2, #4
 800083e:	f022 0204 	bicne.w	r2, r2, #4
 8000842:	601a      	str	r2, [r3, #0]
 8000844:	e9d4 2102 	ldrd	r2, r1, [r4, #8]
 8000848:	430a      	orrs	r2, r1
 800084a:	6921      	ldr	r1, [r4, #16]
 800084c:	430a      	orrs	r2, r1
 800084e:	6961      	ldr	r1, [r4, #20]
 8000850:	430a      	orrs	r2, r1
 8000852:	6861      	ldr	r1, [r4, #4]
 8000854:	3901      	subs	r1, #1
 8000856:	430a      	orrs	r2, r1
 8000858:	61da      	str	r2, [r3, #28]
 800085a:	2000      	movs	r0, #0
 800085c:	2301      	movs	r3, #1
 800085e:	6260      	str	r0, [r4, #36]	; 0x24
 8000860:	f884 3020 	strb.w	r3, [r4, #32]
 8000864:	bd38      	pop	{r3, r4, r5, pc}
 8000866:	f7ff ff91 	bl	800078c <HAL_GetTick>
 800086a:	1b40      	subs	r0, r0, r5
 800086c:	280a      	cmp	r0, #10
 800086e:	d9a4      	bls.n	80007ba <HAL_CAN_Init+0x22>
 8000870:	6a63      	ldr	r3, [r4, #36]	; 0x24
 8000872:	f443 3300 	orr.w	r3, r3, #131072	; 0x20000
 8000876:	6263      	str	r3, [r4, #36]	; 0x24
 8000878:	2305      	movs	r3, #5
 800087a:	f884 3020 	strb.w	r3, [r4, #32]
 800087e:	2001      	movs	r0, #1
 8000880:	e7f0      	b.n	8000864 <HAL_CAN_Init+0xcc>
 8000882:	f7ff ff83 	bl	800078c <HAL_GetTick>
 8000886:	1b40      	subs	r0, r0, r5
 8000888:	280a      	cmp	r0, #10
 800088a:	d9a1      	bls.n	80007d0 <HAL_CAN_Init+0x38>
 800088c:	e7f0      	b.n	8000870 <HAL_CAN_Init+0xd8>

0800088e <HAL_CAN_ConfigFilter>:
 800088e:	b570      	push	{r4, r5, r6, lr}
 8000890:	f890 2020 	ldrb.w	r2, [r0, #32]
 8000894:	6803      	ldr	r3, [r0, #0]
 8000896:	3a01      	subs	r2, #1
 8000898:	2a01      	cmp	r2, #1
 800089a:	d860      	bhi.n	800095e <HAL_CAN_ConfigFilter+0xd0>
 800089c:	f8d3 2200 	ldr.w	r2, [r3, #512]	; 0x200
 80008a0:	f042 0201 	orr.w	r2, r2, #1
 80008a4:	f8c3 2200 	str.w	r2, [r3, #512]	; 0x200
 80008a8:	694a      	ldr	r2, [r1, #20]
 80008aa:	f8d3 521c 	ldr.w	r5, [r3, #540]	; 0x21c
 80008ae:	f002 041f 	and.w	r4, r2, #31
 80008b2:	2001      	movs	r0, #1
 80008b4:	40a0      	lsls	r0, r4
 80008b6:	ea25 0500 	bic.w	r5, r5, r0
 80008ba:	f8c3 521c 	str.w	r5, [r3, #540]	; 0x21c
 80008be:	69cd      	ldr	r5, [r1, #28]
 80008c0:	43c4      	mvns	r4, r0
 80008c2:	bb85      	cbnz	r5, 8000926 <HAL_CAN_ConfigFilter+0x98>
 80008c4:	f8d3 520c 	ldr.w	r5, [r3, #524]	; 0x20c
 80008c8:	68ce      	ldr	r6, [r1, #12]
 80008ca:	4025      	ands	r5, r4
 80008cc:	f8c3 520c 	str.w	r5, [r3, #524]	; 0x20c
 80008d0:	888d      	ldrh	r5, [r1, #4]
 80008d2:	eb03 02c2 	add.w	r2, r3, r2, lsl #3
 80008d6:	ea45 4506 	orr.w	r5, r5, r6, lsl #16
 80008da:	f8c2 5240 	str.w	r5, [r2, #576]	; 0x240
 80008de:	688e      	ldr	r6, [r1, #8]
 80008e0:	880d      	ldrh	r5, [r1, #0]
 80008e2:	ea45 4506 	orr.w	r5, r5, r6, lsl #16
 80008e6:	f8c2 5244 	str.w	r5, [r2, #580]	; 0x244
 80008ea:	698a      	ldr	r2, [r1, #24]
 80008ec:	bb6a      	cbnz	r2, 800094a <HAL_CAN_ConfigFilter+0xbc>
 80008ee:	f8d3 2204 	ldr.w	r2, [r3, #516]	; 0x204
 80008f2:	4022      	ands	r2, r4
 80008f4:	f8c3 2204 	str.w	r2, [r3, #516]	; 0x204
 80008f8:	690a      	ldr	r2, [r1, #16]
 80008fa:	bb52      	cbnz	r2, 8000952 <HAL_CAN_ConfigFilter+0xc4>
 80008fc:	f8d3 2214 	ldr.w	r2, [r3, #532]	; 0x214
 8000900:	4014      	ands	r4, r2
 8000902:	f8c3 4214 	str.w	r4, [r3, #532]	; 0x214
 8000906:	6a0a      	ldr	r2, [r1, #32]
 8000908:	2a01      	cmp	r2, #1
 800090a:	bf02      	ittt	eq
 800090c:	f8d3 221c 	ldreq.w	r2, [r3, #540]	; 0x21c
 8000910:	4302      	orreq	r2, r0
 8000912:	f8c3 221c 	streq.w	r2, [r3, #540]	; 0x21c
 8000916:	f8d3 2200 	ldr.w	r2, [r3, #512]	; 0x200
 800091a:	f022 0201 	bic.w	r2, r2, #1
 800091e:	f8c3 2200 	str.w	r2, [r3, #512]	; 0x200
 8000922:	2000      	movs	r0, #0
 8000924:	bd70      	pop	{r4, r5, r6, pc}
 8000926:	2d01      	cmp	r5, #1
 8000928:	d1df      	bne.n	80008ea <HAL_CAN_ConfigFilter+0x5c>
 800092a:	f8d3 520c 	ldr.w	r5, [r3, #524]	; 0x20c
 800092e:	680e      	ldr	r6, [r1, #0]
 8000930:	4305      	orrs	r5, r0
 8000932:	f8c3 520c 	str.w	r5, [r3, #524]	; 0x20c
 8000936:	888d      	ldrh	r5, [r1, #4]
 8000938:	eb03 02c2 	add.w	r2, r3, r2, lsl #3
 800093c:	ea45 4506 	orr.w	r5, r5, r6, lsl #16
 8000940:	f8c2 5240 	str.w	r5, [r2, #576]	; 0x240
 8000944:	688e      	ldr	r6, [r1, #8]
 8000946:	898d      	ldrh	r5, [r1, #12]
 8000948:	e7cb      	b.n	80008e2 <HAL_CAN_ConfigFilter+0x54>
 800094a:	f8d3 2204 	ldr.w	r2, [r3, #516]	; 0x204
 800094e:	4302      	orrs	r2, r0
 8000950:	e7d0      	b.n	80008f4 <HAL_CAN_ConfigFilter+0x66>
 8000952:	f8d3 2214 	ldr.w	r2, [r3, #532]	; 0x214
 8000956:	4302      	orrs	r2, r0
 8000958:	f8c3 2214 	str.w	r2, [r3, #532]	; 0x214
 800095c:	e7d3      	b.n	8000906 <HAL_CAN_ConfigFilter+0x78>
 800095e:	6a43      	ldr	r3, [r0, #36]	; 0x24
 8000960:	f443 2380 	orr.w	r3, r3, #262144	; 0x40000
 8000964:	6243      	str	r3, [r0, #36]	; 0x24
 8000966:	2001      	movs	r0, #1
 8000968:	e7dc      	b.n	8000924 <HAL_CAN_ConfigFilter+0x96>

0800096a <HAL_CAN_Start>:
 800096a:	b570      	push	{r4, r5, r6, lr}
 800096c:	f890 3020 	ldrb.w	r3, [r0, #32]
 8000970:	2b01      	cmp	r3, #1
 8000972:	4604      	mov	r4, r0
 8000974:	b2dd      	uxtb	r5, r3
 8000976:	d120      	bne.n	80009ba <HAL_CAN_Start+0x50>
 8000978:	6802      	ldr	r2, [r0, #0]
 800097a:	2302      	movs	r3, #2
 800097c:	f880 3020 	strb.w	r3, [r0, #32]
 8000980:	6813      	ldr	r3, [r2, #0]
 8000982:	f023 0301 	bic.w	r3, r3, #1
 8000986:	6013      	str	r3, [r2, #0]
 8000988:	f7ff ff00 	bl	800078c <HAL_GetTick>
 800098c:	4606      	mov	r6, r0
 800098e:	6823      	ldr	r3, [r4, #0]
 8000990:	685b      	ldr	r3, [r3, #4]
 8000992:	f013 0301 	ands.w	r3, r3, #1
 8000996:	d102      	bne.n	800099e <HAL_CAN_Start+0x34>
 8000998:	6263      	str	r3, [r4, #36]	; 0x24
 800099a:	461d      	mov	r5, r3
 800099c:	e00b      	b.n	80009b6 <HAL_CAN_Start+0x4c>
 800099e:	f7ff fef5 	bl	800078c <HAL_GetTick>
 80009a2:	1b80      	subs	r0, r0, r6
 80009a4:	280a      	cmp	r0, #10
 80009a6:	d9f2      	bls.n	800098e <HAL_CAN_Start+0x24>
 80009a8:	6a63      	ldr	r3, [r4, #36]	; 0x24
 80009aa:	f443 3300 	orr.w	r3, r3, #131072	; 0x20000
 80009ae:	6263      	str	r3, [r4, #36]	; 0x24
 80009b0:	2305      	movs	r3, #5
 80009b2:	f884 3020 	strb.w	r3, [r4, #32]
 80009b6:	4628      	mov	r0, r5
 80009b8:	bd70      	pop	{r4, r5, r6, pc}
 80009ba:	6a43      	ldr	r3, [r0, #36]	; 0x24
 80009bc:	f443 2300 	orr.w	r3, r3, #524288	; 0x80000
 80009c0:	6243      	str	r3, [r0, #36]	; 0x24
 80009c2:	2501      	movs	r5, #1
 80009c4:	e7f7      	b.n	80009b6 <HAL_CAN_Start+0x4c>

080009c6 <HAL_CAN_AddTxMessage>:
 80009c6:	b5f0      	push	{r4, r5, r6, r7, lr}
 80009c8:	f890 5020 	ldrb.w	r5, [r0, #32]
 80009cc:	6806      	ldr	r6, [r0, #0]
 80009ce:	3d01      	subs	r5, #1
 80009d0:	2d01      	cmp	r5, #1
 80009d2:	68b4      	ldr	r4, [r6, #8]
 80009d4:	d83f      	bhi.n	8000a56 <HAL_CAN_AddTxMessage+0x90>
 80009d6:	f014 5fe0 	tst.w	r4, #469762048	; 0x1c000000
 80009da:	f04f 0501 	mov.w	r5, #1
 80009de:	d034      	beq.n	8000a4a <HAL_CAN_AddTxMessage+0x84>
 80009e0:	f3c4 6401 	ubfx	r4, r4, #24, #2
 80009e4:	40a5      	lsls	r5, r4
 80009e6:	601d      	str	r5, [r3, #0]
 80009e8:	e9d1 0702 	ldrd	r0, r7, [r1, #8]
 80009ec:	f104 0318 	add.w	r3, r4, #24
 80009f0:	bb20      	cbnz	r0, 8000a3c <HAL_CAN_AddTxMessage+0x76>
 80009f2:	6808      	ldr	r0, [r1, #0]
 80009f4:	011b      	lsls	r3, r3, #4
 80009f6:	ea47 5740 	orr.w	r7, r7, r0, lsl #21
 80009fa:	50f7      	str	r7, [r6, r3]
 80009fc:	eb06 1304 	add.w	r3, r6, r4, lsl #4
 8000a00:	690d      	ldr	r5, [r1, #16]
 8000a02:	f8c3 5184 	str.w	r5, [r3, #388]	; 0x184
 8000a06:	7d09      	ldrb	r1, [r1, #20]
 8000a08:	2901      	cmp	r1, #1
 8000a0a:	bf08      	it	eq
 8000a0c:	f8d3 1184 	ldreq.w	r1, [r3, #388]	; 0x184
 8000a10:	ea4f 1004 	mov.w	r0, r4, lsl #4
 8000a14:	bf04      	itt	eq
 8000a16:	f441 7180 	orreq.w	r1, r1, #256	; 0x100
 8000a1a:	f8c3 1184 	streq.w	r1, [r3, #388]	; 0x184
 8000a1e:	4406      	add	r6, r0
 8000a20:	6851      	ldr	r1, [r2, #4]
 8000a22:	f8c6 118c 	str.w	r1, [r6, #396]	; 0x18c
 8000a26:	6812      	ldr	r2, [r2, #0]
 8000a28:	f8c6 2188 	str.w	r2, [r6, #392]	; 0x188
 8000a2c:	f8d3 2180 	ldr.w	r2, [r3, #384]	; 0x180
 8000a30:	f042 0201 	orr.w	r2, r2, #1
 8000a34:	f8c3 2180 	str.w	r2, [r3, #384]	; 0x180
 8000a38:	2000      	movs	r0, #0
 8000a3a:	bdf0      	pop	{r4, r5, r6, r7, pc}
 8000a3c:	684d      	ldr	r5, [r1, #4]
 8000a3e:	4338      	orrs	r0, r7
 8000a40:	011b      	lsls	r3, r3, #4
 8000a42:	ea40 00c5 	orr.w	r0, r0, r5, lsl #3
 8000a46:	50f0      	str	r0, [r6, r3]
 8000a48:	e7d8      	b.n	80009fc <HAL_CAN_AddTxMessage+0x36>
 8000a4a:	6a43      	ldr	r3, [r0, #36]	; 0x24
 8000a4c:	f443 1300 	orr.w	r3, r3, #2097152	; 0x200000
 8000a50:	6243      	str	r3, [r0, #36]	; 0x24
 8000a52:	2001      	movs	r0, #1
 8000a54:	e7f1      	b.n	8000a3a <HAL_CAN_AddTxMessage+0x74>
 8000a56:	6a43      	ldr	r3, [r0, #36]	; 0x24
 8000a58:	f443 2380 	orr.w	r3, r3, #262144	; 0x40000
 8000a5c:	e7f8      	b.n	8000a50 <HAL_CAN_AddTxMessage+0x8a>

08000a5e <HAL_CAN_GetTxMailboxesFreeLevel>:
 8000a5e:	f890 3020 	ldrb.w	r3, [r0, #32]
 8000a62:	3b01      	subs	r3, #1
 8000a64:	2b01      	cmp	r3, #1
 8000a66:	d80c      	bhi.n	8000a82 <HAL_CAN_GetTxMailboxesFreeLevel+0x24>
 8000a68:	6803      	ldr	r3, [r0, #0]
 8000a6a:	6898      	ldr	r0, [r3, #8]
 8000a6c:	689a      	ldr	r2, [r3, #8]
 8000a6e:	689b      	ldr	r3, [r3, #8]
 8000a70:	0112      	lsls	r2, r2, #4
 8000a72:	f3c0 6080 	ubfx	r0, r0, #26, #1
 8000a76:	bf48      	it	mi
 8000a78:	3001      	addmi	r0, #1
 8000a7a:	00db      	lsls	r3, r3, #3
 8000a7c:	d502      	bpl.n	8000a84 <HAL_CAN_GetTxMailboxesFreeLevel+0x26>
 8000a7e:	3001      	adds	r0, #1
 8000a80:	4770      	bx	lr
 8000a82:	2000      	movs	r0, #0
 8000a84:	4770      	bx	lr

08000a86 <HAL_CAN_GetRxMessage>:
 8000a86:	b5f0      	push	{r4, r5, r6, r7, lr}
 8000a88:	f890 4020 	ldrb.w	r4, [r0, #32]
 8000a8c:	3c01      	subs	r4, #1
 8000a8e:	2c01      	cmp	r4, #1
 8000a90:	d871      	bhi.n	8000b76 <HAL_CAN_GetRxMessage+0xf0>
 8000a92:	6806      	ldr	r6, [r0, #0]
 8000a94:	b941      	cbnz	r1, 8000aa8 <HAL_CAN_GetRxMessage+0x22>
 8000a96:	68f4      	ldr	r4, [r6, #12]
 8000a98:	07a4      	lsls	r4, r4, #30
 8000a9a:	d107      	bne.n	8000aac <HAL_CAN_GetRxMessage+0x26>
 8000a9c:	6a43      	ldr	r3, [r0, #36]	; 0x24
 8000a9e:	f443 1300 	orr.w	r3, r3, #2097152	; 0x200000
 8000aa2:	6243      	str	r3, [r0, #36]	; 0x24
 8000aa4:	2001      	movs	r0, #1
 8000aa6:	e05b      	b.n	8000b60 <HAL_CAN_GetRxMessage+0xda>
 8000aa8:	6934      	ldr	r4, [r6, #16]
 8000aaa:	e7f5      	b.n	8000a98 <HAL_CAN_GetRxMessage+0x12>
 8000aac:	eb06 1501 	add.w	r5, r6, r1, lsl #4
 8000ab0:	010c      	lsls	r4, r1, #4
 8000ab2:	f8d5 71b0 	ldr.w	r7, [r5, #432]	; 0x1b0
 8000ab6:	f007 0704 	and.w	r7, r7, #4
 8000aba:	6097      	str	r7, [r2, #8]
 8000abc:	2f00      	cmp	r7, #0
 8000abe:	d150      	bne.n	8000b62 <HAL_CAN_GetRxMessage+0xdc>
 8000ac0:	f8d5 71b0 	ldr.w	r7, [r5, #432]	; 0x1b0
 8000ac4:	0d7f      	lsrs	r7, r7, #21
 8000ac6:	6017      	str	r7, [r2, #0]
 8000ac8:	f8d5 71b0 	ldr.w	r7, [r5, #432]	; 0x1b0
 8000acc:	f007 0702 	and.w	r7, r7, #2
 8000ad0:	60d7      	str	r7, [r2, #12]
 8000ad2:	f8d5 71b4 	ldr.w	r7, [r5, #436]	; 0x1b4
 8000ad6:	073f      	lsls	r7, r7, #28
 8000ad8:	bf56      	itet	pl
 8000ada:	f8d5 71b4 	ldrpl.w	r7, [r5, #436]	; 0x1b4
 8000ade:	2708      	movmi	r7, #8
 8000ae0:	f007 070f 	andpl.w	r7, r7, #15
 8000ae4:	6117      	str	r7, [r2, #16]
 8000ae6:	f8d5 71b4 	ldr.w	r7, [r5, #436]	; 0x1b4
 8000aea:	f8d5 51b4 	ldr.w	r5, [r5, #436]	; 0x1b4
 8000aee:	4426      	add	r6, r4
 8000af0:	f3c7 2707 	ubfx	r7, r7, #8, #8
 8000af4:	0c2d      	lsrs	r5, r5, #16
 8000af6:	6197      	str	r7, [r2, #24]
 8000af8:	6155      	str	r5, [r2, #20]
 8000afa:	f8d6 21b8 	ldr.w	r2, [r6, #440]	; 0x1b8
 8000afe:	701a      	strb	r2, [r3, #0]
 8000b00:	6802      	ldr	r2, [r0, #0]
 8000b02:	4422      	add	r2, r4
 8000b04:	f8d2 21b8 	ldr.w	r2, [r2, #440]	; 0x1b8
 8000b08:	0a12      	lsrs	r2, r2, #8
 8000b0a:	705a      	strb	r2, [r3, #1]
 8000b0c:	6802      	ldr	r2, [r0, #0]
 8000b0e:	4422      	add	r2, r4
 8000b10:	f8d2 21b8 	ldr.w	r2, [r2, #440]	; 0x1b8
 8000b14:	0c12      	lsrs	r2, r2, #16
 8000b16:	709a      	strb	r2, [r3, #2]
 8000b18:	6802      	ldr	r2, [r0, #0]
 8000b1a:	4422      	add	r2, r4
 8000b1c:	f8d2 21b8 	ldr.w	r2, [r2, #440]	; 0x1b8
 8000b20:	0e12      	lsrs	r2, r2, #24
 8000b22:	70da      	strb	r2, [r3, #3]
 8000b24:	6802      	ldr	r2, [r0, #0]
 8000b26:	4422      	add	r2, r4
 8000b28:	f8d2 21bc 	ldr.w	r2, [r2, #444]	; 0x1bc
 8000b2c:	711a      	strb	r2, [r3, #4]
 8000b2e:	6802      	ldr	r2, [r0, #0]
 8000b30:	4422      	add	r2, r4
 8000b32:	f8d2 21bc 	ldr.w	r2, [r2, #444]	; 0x1bc
 8000b36:	0a12      	lsrs	r2, r2, #8
 8000b38:	715a      	strb	r2, [r3, #5]
 8000b3a:	6802      	ldr	r2, [r0, #0]
 8000b3c:	4422      	add	r2, r4
 8000b3e:	f8d2 21bc 	ldr.w	r2, [r2, #444]	; 0x1bc
 8000b42:	0c12      	lsrs	r2, r2, #16
 8000b44:	719a      	strb	r2, [r3, #6]
 8000b46:	6802      	ldr	r2, [r0, #0]
 8000b48:	4422      	add	r2, r4
 8000b4a:	f8d2 21bc 	ldr.w	r2, [r2, #444]	; 0x1bc
 8000b4e:	0e12      	lsrs	r2, r2, #24
 8000b50:	71da      	strb	r2, [r3, #7]
 8000b52:	6803      	ldr	r3, [r0, #0]
 8000b54:	b951      	cbnz	r1, 8000b6c <HAL_CAN_GetRxMessage+0xe6>
 8000b56:	68da      	ldr	r2, [r3, #12]
 8000b58:	f042 0220 	orr.w	r2, r2, #32
 8000b5c:	60da      	str	r2, [r3, #12]
 8000b5e:	2000      	movs	r0, #0
 8000b60:	bdf0      	pop	{r4, r5, r6, r7, pc}
 8000b62:	f8d5 71b0 	ldr.w	r7, [r5, #432]	; 0x1b0
 8000b66:	08ff      	lsrs	r7, r7, #3
 8000b68:	6057      	str	r7, [r2, #4]
 8000b6a:	e7ad      	b.n	8000ac8 <HAL_CAN_GetRxMessage+0x42>
 8000b6c:	691a      	ldr	r2, [r3, #16]
 8000b6e:	f042 0220 	orr.w	r2, r2, #32
 8000b72:	611a      	str	r2, [r3, #16]
 8000b74:	e7f3      	b.n	8000b5e <HAL_CAN_GetRxMessage+0xd8>
 8000b76:	6a43      	ldr	r3, [r0, #36]	; 0x24
 8000b78:	f443 2380 	orr.w	r3, r3, #262144	; 0x40000
 8000b7c:	e791      	b.n	8000aa2 <HAL_CAN_GetRxMessage+0x1c>

08000b7e <HAL_CAN_ActivateNotification>:
 8000b7e:	f890 3020 	ldrb.w	r3, [r0, #32]
 8000b82:	3b01      	subs	r3, #1
 8000b84:	2b01      	cmp	r3, #1
 8000b86:	d805      	bhi.n	8000b94 <HAL_CAN_ActivateNotification+0x16>
 8000b88:	6802      	ldr	r2, [r0, #0]
 8000b8a:	6953      	ldr	r3, [r2, #20]
 8000b8c:	4319      	orrs	r1, r3
 8000b8e:	6151      	str	r1, [r2, #20]
 8000b90:	2000      	movs	r0, #0
 8000b92:	4770      	bx	lr
 8000b94:	6a43      	ldr	r3, [r0, #36]	; 0x24
 8000b96:	f443 2380 	orr.w	r3, r3, #262144	; 0x40000
 8000b9a:	6243      	str	r3, [r0, #36]	; 0x24
 8000b9c:	2001      	movs	r0, #1
 8000b9e:	4770      	bx	lr

08000ba0 <HAL_CAN_TxMailbox0CompleteCallback>:
 8000ba0:	4770      	bx	lr

08000ba2 <HAL_CAN_TxMailbox1CompleteCallback>:
 8000ba2:	4770      	bx	lr

08000ba4 <HAL_CAN_TxMailbox2CompleteCallback>:
 8000ba4:	4770      	bx	lr

08000ba6 <HAL_CAN_TxMailbox0AbortCallback>:
 8000ba6:	4770      	bx	lr

08000ba8 <HAL_CAN_TxMailbox1AbortCallback>:
 8000ba8:	4770      	bx	lr

08000baa <HAL_CAN_TxMailbox2AbortCallback>:
 8000baa:	4770      	bx	lr

08000bac <HAL_CAN_RxFifo0FullCallback>:
 8000bac:	4770      	bx	lr

08000bae <HAL_CAN_RxFifo1MsgPendingCallback>:
 8000bae:	4770      	bx	lr

08000bb0 <HAL_CAN_RxFifo1FullCallback>:
 8000bb0:	4770      	bx	lr

08000bb2 <HAL_CAN_SleepCallback>:
 8000bb2:	4770      	bx	lr

08000bb4 <HAL_CAN_WakeUpFromRxMsgCallback>:
 8000bb4:	4770      	bx	lr

08000bb6 <HAL_CAN_ErrorCallback>:
 8000bb6:	4770      	bx	lr

08000bb8 <HAL_CAN_IRQHandler>:
 8000bb8:	e92d 4ff8 	stmdb	sp!, {r3, r4, r5, r6, r7, r8, r9, sl, fp, lr}
 8000bbc:	6803      	ldr	r3, [r0, #0]
 8000bbe:	695e      	ldr	r6, [r3, #20]
 8000bc0:	f8d3 9004 	ldr.w	r9, [r3, #4]
 8000bc4:	689f      	ldr	r7, [r3, #8]
 8000bc6:	f8d3 b00c 	ldr.w	fp, [r3, #12]
 8000bca:	f8d3 a010 	ldr.w	sl, [r3, #16]
 8000bce:	f8d3 8018 	ldr.w	r8, [r3, #24]
 8000bd2:	f016 0401 	ands.w	r4, r6, #1
 8000bd6:	4605      	mov	r5, r0
 8000bd8:	d022      	beq.n	8000c20 <HAL_CAN_IRQHandler+0x68>
 8000bda:	f017 0401 	ands.w	r4, r7, #1
 8000bde:	d007      	beq.n	8000bf0 <HAL_CAN_IRQHandler+0x38>
 8000be0:	2201      	movs	r2, #1
 8000be2:	07b9      	lsls	r1, r7, #30
 8000be4:	609a      	str	r2, [r3, #8]
 8000be6:	f140 80a5 	bpl.w	8000d34 <HAL_CAN_IRQHandler+0x17c>
 8000bea:	f7ff ffd9 	bl	8000ba0 <HAL_CAN_TxMailbox0CompleteCallback>
 8000bee:	2400      	movs	r4, #0
 8000bf0:	05fb      	lsls	r3, r7, #23
 8000bf2:	d509      	bpl.n	8000c08 <HAL_CAN_IRQHandler+0x50>
 8000bf4:	682b      	ldr	r3, [r5, #0]
 8000bf6:	f44f 7280 	mov.w	r2, #256	; 0x100
 8000bfa:	05b8      	lsls	r0, r7, #22
 8000bfc:	609a      	str	r2, [r3, #8]
 8000bfe:	f140 80a7 	bpl.w	8000d50 <HAL_CAN_IRQHandler+0x198>
 8000c02:	4628      	mov	r0, r5
 8000c04:	f7ff ffcd 	bl	8000ba2 <HAL_CAN_TxMailbox1CompleteCallback>
 8000c08:	03fb      	lsls	r3, r7, #15
 8000c0a:	d509      	bpl.n	8000c20 <HAL_CAN_IRQHandler+0x68>
 8000c0c:	682b      	ldr	r3, [r5, #0]
 8000c0e:	f44f 3280 	mov.w	r2, #65536	; 0x10000
 8000c12:	03b8      	lsls	r0, r7, #14
 8000c14:	609a      	str	r2, [r3, #8]
 8000c16:	f140 80a9 	bpl.w	8000d6c <HAL_CAN_IRQHandler+0x1b4>
 8000c1a:	4628      	mov	r0, r5
 8000c1c:	f7ff ffc2 	bl	8000ba4 <HAL_CAN_TxMailbox2CompleteCallback>
 8000c20:	0733      	lsls	r3, r6, #28
 8000c22:	d507      	bpl.n	8000c34 <HAL_CAN_IRQHandler+0x7c>
 8000c24:	f01b 0f10 	tst.w	fp, #16
 8000c28:	bf1f      	itttt	ne
 8000c2a:	682b      	ldrne	r3, [r5, #0]
 8000c2c:	2210      	movne	r2, #16
 8000c2e:	f444 7400 	orrne.w	r4, r4, #512	; 0x200
 8000c32:	60da      	strne	r2, [r3, #12]
 8000c34:	0777      	lsls	r7, r6, #29
 8000c36:	d508      	bpl.n	8000c4a <HAL_CAN_IRQHandler+0x92>
 8000c38:	f01b 0f08 	tst.w	fp, #8
 8000c3c:	d005      	beq.n	8000c4a <HAL_CAN_IRQHandler+0x92>
 8000c3e:	682b      	ldr	r3, [r5, #0]
 8000c40:	2208      	movs	r2, #8
 8000c42:	60da      	str	r2, [r3, #12]
 8000c44:	4628      	mov	r0, r5
 8000c46:	f7ff ffb1 	bl	8000bac <HAL_CAN_RxFifo0FullCallback>
 8000c4a:	07b0      	lsls	r0, r6, #30
 8000c4c:	d506      	bpl.n	8000c5c <HAL_CAN_IRQHandler+0xa4>
 8000c4e:	682b      	ldr	r3, [r5, #0]
 8000c50:	68db      	ldr	r3, [r3, #12]
 8000c52:	0799      	lsls	r1, r3, #30
 8000c54:	d002      	beq.n	8000c5c <HAL_CAN_IRQHandler+0xa4>
 8000c56:	4628      	mov	r0, r5
 8000c58:	f7ff fd02 	bl	8000660 <HAL_CAN_RxFifo0MsgPendingCallback>
 8000c5c:	0672      	lsls	r2, r6, #25
 8000c5e:	d507      	bpl.n	8000c70 <HAL_CAN_IRQHandler+0xb8>
 8000c60:	f01a 0f10 	tst.w	sl, #16
 8000c64:	bf1f      	itttt	ne
 8000c66:	682b      	ldrne	r3, [r5, #0]
 8000c68:	2210      	movne	r2, #16
 8000c6a:	f444 6480 	orrne.w	r4, r4, #1024	; 0x400
 8000c6e:	611a      	strne	r2, [r3, #16]
 8000c70:	06b3      	lsls	r3, r6, #26
 8000c72:	d508      	bpl.n	8000c86 <HAL_CAN_IRQHandler+0xce>
 8000c74:	f01a 0f08 	tst.w	sl, #8
 8000c78:	d005      	beq.n	8000c86 <HAL_CAN_IRQHandler+0xce>
 8000c7a:	682b      	ldr	r3, [r5, #0]
 8000c7c:	2208      	movs	r2, #8
 8000c7e:	611a      	str	r2, [r3, #16]
 8000c80:	4628      	mov	r0, r5
 8000c82:	f7ff ff95 	bl	8000bb0 <HAL_CAN_RxFifo1FullCallback>
 8000c86:	06f7      	lsls	r7, r6, #27
 8000c88:	d506      	bpl.n	8000c98 <HAL_CAN_IRQHandler+0xe0>
 8000c8a:	682b      	ldr	r3, [r5, #0]
 8000c8c:	691b      	ldr	r3, [r3, #16]
 8000c8e:	0798      	lsls	r0, r3, #30
 8000c90:	d002      	beq.n	8000c98 <HAL_CAN_IRQHandler+0xe0>
 8000c92:	4628      	mov	r0, r5
 8000c94:	f7ff ff8b 	bl	8000bae <HAL_CAN_RxFifo1MsgPendingCallback>
 8000c98:	03b1      	lsls	r1, r6, #14
 8000c9a:	d508      	bpl.n	8000cae <HAL_CAN_IRQHandler+0xf6>
 8000c9c:	f019 0f10 	tst.w	r9, #16
 8000ca0:	d005      	beq.n	8000cae <HAL_CAN_IRQHandler+0xf6>
 8000ca2:	682b      	ldr	r3, [r5, #0]
 8000ca4:	2210      	movs	r2, #16
 8000ca6:	605a      	str	r2, [r3, #4]
 8000ca8:	4628      	mov	r0, r5
 8000caa:	f7ff ff82 	bl	8000bb2 <HAL_CAN_SleepCallback>
 8000cae:	03f2      	lsls	r2, r6, #15
 8000cb0:	d508      	bpl.n	8000cc4 <HAL_CAN_IRQHandler+0x10c>
 8000cb2:	f019 0f08 	tst.w	r9, #8
 8000cb6:	d005      	beq.n	8000cc4 <HAL_CAN_IRQHandler+0x10c>
 8000cb8:	682b      	ldr	r3, [r5, #0]
 8000cba:	2208      	movs	r2, #8
 8000cbc:	605a      	str	r2, [r3, #4]
 8000cbe:	4628      	mov	r0, r5
 8000cc0:	f7ff ff78 	bl	8000bb4 <HAL_CAN_WakeUpFromRxMsgCallback>
 8000cc4:	0433      	lsls	r3, r6, #16
 8000cc6:	d52c      	bpl.n	8000d22 <HAL_CAN_IRQHandler+0x16a>
 8000cc8:	f019 0f04 	tst.w	r9, #4
 8000ccc:	682a      	ldr	r2, [r5, #0]
 8000cce:	d026      	beq.n	8000d1e <HAL_CAN_IRQHandler+0x166>
 8000cd0:	05f7      	lsls	r7, r6, #23
 8000cd2:	d504      	bpl.n	8000cde <HAL_CAN_IRQHandler+0x126>
 8000cd4:	f018 0f01 	tst.w	r8, #1
 8000cd8:	bf18      	it	ne
 8000cda:	f044 0401 	orrne.w	r4, r4, #1
 8000cde:	05b0      	lsls	r0, r6, #22
 8000ce0:	d504      	bpl.n	8000cec <HAL_CAN_IRQHandler+0x134>
 8000ce2:	f018 0f02 	tst.w	r8, #2
 8000ce6:	bf18      	it	ne
 8000ce8:	f044 0402 	orrne.w	r4, r4, #2
 8000cec:	0571      	lsls	r1, r6, #21
 8000cee:	d504      	bpl.n	8000cfa <HAL_CAN_IRQHandler+0x142>
 8000cf0:	f018 0f04 	tst.w	r8, #4
 8000cf4:	bf18      	it	ne
 8000cf6:	f044 0404 	orrne.w	r4, r4, #4
 8000cfa:	0533      	lsls	r3, r6, #20
 8000cfc:	d50f      	bpl.n	8000d1e <HAL_CAN_IRQHandler+0x166>
 8000cfe:	f018 0370 	ands.w	r3, r8, #112	; 0x70
 8000d02:	d00c      	beq.n	8000d1e <HAL_CAN_IRQHandler+0x166>
 8000d04:	2b40      	cmp	r3, #64	; 0x40
 8000d06:	d04f      	beq.n	8000da8 <HAL_CAN_IRQHandler+0x1f0>
 8000d08:	d83e      	bhi.n	8000d88 <HAL_CAN_IRQHandler+0x1d0>
 8000d0a:	2b20      	cmp	r3, #32
 8000d0c:	d046      	beq.n	8000d9c <HAL_CAN_IRQHandler+0x1e4>
 8000d0e:	2b30      	cmp	r3, #48	; 0x30
 8000d10:	d047      	beq.n	8000da2 <HAL_CAN_IRQHandler+0x1ea>
 8000d12:	2b10      	cmp	r3, #16
 8000d14:	d03f      	beq.n	8000d96 <HAL_CAN_IRQHandler+0x1de>
 8000d16:	6993      	ldr	r3, [r2, #24]
 8000d18:	f023 0370 	bic.w	r3, r3, #112	; 0x70
 8000d1c:	6193      	str	r3, [r2, #24]
 8000d1e:	2304      	movs	r3, #4
 8000d20:	6053      	str	r3, [r2, #4]
 8000d22:	b12c      	cbz	r4, 8000d30 <HAL_CAN_IRQHandler+0x178>
 8000d24:	6a6b      	ldr	r3, [r5, #36]	; 0x24
 8000d26:	4323      	orrs	r3, r4
 8000d28:	626b      	str	r3, [r5, #36]	; 0x24
 8000d2a:	4628      	mov	r0, r5
 8000d2c:	f7ff ff43 	bl	8000bb6 <HAL_CAN_ErrorCallback>
 8000d30:	e8bd 8ff8 	ldmia.w	sp!, {r3, r4, r5, r6, r7, r8, r9, sl, fp, pc}
 8000d34:	077a      	lsls	r2, r7, #29
 8000d36:	d405      	bmi.n	8000d44 <HAL_CAN_IRQHandler+0x18c>
 8000d38:	f017 0408 	ands.w	r4, r7, #8
 8000d3c:	d105      	bne.n	8000d4a <HAL_CAN_IRQHandler+0x192>
 8000d3e:	f7ff ff32 	bl	8000ba6 <HAL_CAN_TxMailbox0AbortCallback>
 8000d42:	e755      	b.n	8000bf0 <HAL_CAN_IRQHandler+0x38>
 8000d44:	f44f 6400 	mov.w	r4, #2048	; 0x800
 8000d48:	e752      	b.n	8000bf0 <HAL_CAN_IRQHandler+0x38>
 8000d4a:	f44f 5480 	mov.w	r4, #4096	; 0x1000
 8000d4e:	e74f      	b.n	8000bf0 <HAL_CAN_IRQHandler+0x38>
 8000d50:	0579      	lsls	r1, r7, #21
 8000d52:	d502      	bpl.n	8000d5a <HAL_CAN_IRQHandler+0x1a2>
 8000d54:	f444 5400 	orr.w	r4, r4, #8192	; 0x2000
 8000d58:	e756      	b.n	8000c08 <HAL_CAN_IRQHandler+0x50>
 8000d5a:	053a      	lsls	r2, r7, #20
 8000d5c:	d502      	bpl.n	8000d64 <HAL_CAN_IRQHandler+0x1ac>
 8000d5e:	f444 4480 	orr.w	r4, r4, #16384	; 0x4000
 8000d62:	e751      	b.n	8000c08 <HAL_CAN_IRQHandler+0x50>
 8000d64:	4628      	mov	r0, r5
 8000d66:	f7ff ff1f 	bl	8000ba8 <HAL_CAN_TxMailbox1AbortCallback>
 8000d6a:	e74d      	b.n	8000c08 <HAL_CAN_IRQHandler+0x50>
 8000d6c:	0379      	lsls	r1, r7, #13
 8000d6e:	d502      	bpl.n	8000d76 <HAL_CAN_IRQHandler+0x1be>
 8000d70:	f444 4400 	orr.w	r4, r4, #32768	; 0x8000
 8000d74:	e754      	b.n	8000c20 <HAL_CAN_IRQHandler+0x68>
 8000d76:	033a      	lsls	r2, r7, #12
 8000d78:	d502      	bpl.n	8000d80 <HAL_CAN_IRQHandler+0x1c8>
 8000d7a:	f444 3480 	orr.w	r4, r4, #65536	; 0x10000
 8000d7e:	e74f      	b.n	8000c20 <HAL_CAN_IRQHandler+0x68>
 8000d80:	4628      	mov	r0, r5
 8000d82:	f7ff ff12 	bl	8000baa <HAL_CAN_TxMailbox2AbortCallback>
 8000d86:	e74b      	b.n	8000c20 <HAL_CAN_IRQHandler+0x68>
 8000d88:	2b50      	cmp	r3, #80	; 0x50
 8000d8a:	d010      	beq.n	8000dae <HAL_CAN_IRQHandler+0x1f6>
 8000d8c:	2b60      	cmp	r3, #96	; 0x60
 8000d8e:	d1c2      	bne.n	8000d16 <HAL_CAN_IRQHandler+0x15e>
 8000d90:	f444 7480 	orr.w	r4, r4, #256	; 0x100
 8000d94:	e7bf      	b.n	8000d16 <HAL_CAN_IRQHandler+0x15e>
 8000d96:	f044 0408 	orr.w	r4, r4, #8
 8000d9a:	e7bc      	b.n	8000d16 <HAL_CAN_IRQHandler+0x15e>
 8000d9c:	f044 0410 	orr.w	r4, r4, #16
 8000da0:	e7b9      	b.n	8000d16 <HAL_CAN_IRQHandler+0x15e>
 8000da2:	f044 0420 	orr.w	r4, r4, #32
 8000da6:	e7b6      	b.n	8000d16 <HAL_CAN_IRQHandler+0x15e>
 8000da8:	f044 0440 	orr.w	r4, r4, #64	; 0x40
 8000dac:	e7b3      	b.n	8000d16 <HAL_CAN_IRQHandler+0x15e>
 8000dae:	f044 0480 	orr.w	r4, r4, #128	; 0x80
 8000db2:	e7b0      	b.n	8000d16 <HAL_CAN_IRQHandler+0x15e>

08000db4 <HAL_NVIC_SetPriorityGrouping>:
 8000db4:	4907      	ldr	r1, [pc, #28]	; (8000dd4 <HAL_NVIC_SetPriorityGrouping+0x20>)
 8000db6:	68ca      	ldr	r2, [r1, #12]
 8000db8:	f422 62e0 	bic.w	r2, r2, #1792	; 0x700
 8000dbc:	0203      	lsls	r3, r0, #8
 8000dbe:	0412      	lsls	r2, r2, #16
 8000dc0:	f403 63e0 	and.w	r3, r3, #1792	; 0x700
 8000dc4:	0c12      	lsrs	r2, r2, #16
 8000dc6:	4313      	orrs	r3, r2
 8000dc8:	f043 63bf 	orr.w	r3, r3, #100139008	; 0x5f80000
 8000dcc:	f443 3300 	orr.w	r3, r3, #131072	; 0x20000
 8000dd0:	60cb      	str	r3, [r1, #12]
 8000dd2:	4770      	bx	lr
 8000dd4:	e000ed00 	.word	0xe000ed00

08000dd8 <HAL_NVIC_SetPriority>:
 8000dd8:	4b16      	ldr	r3, [pc, #88]	; (8000e34 <HAL_NVIC_SetPriority+0x5c>)
 8000dda:	b530      	push	{r4, r5, lr}
 8000ddc:	68dc      	ldr	r4, [r3, #12]
 8000dde:	f3c4 2402 	ubfx	r4, r4, #8, #3
 8000de2:	f1c4 0307 	rsb	r3, r4, #7
 8000de6:	1d25      	adds	r5, r4, #4
 8000de8:	2b04      	cmp	r3, #4
 8000dea:	bf28      	it	cs
 8000dec:	2304      	movcs	r3, #4
 8000dee:	2d06      	cmp	r5, #6
 8000df0:	f04f 35ff 	mov.w	r5, #4294967295
 8000df4:	bf8c      	ite	hi
 8000df6:	3c03      	subhi	r4, #3
 8000df8:	2400      	movls	r4, #0
 8000dfa:	fa05 f303 	lsl.w	r3, r5, r3
 8000dfe:	ea21 0303 	bic.w	r3, r1, r3
 8000e02:	40a5      	lsls	r5, r4
 8000e04:	ea22 0205 	bic.w	r2, r2, r5
 8000e08:	40a3      	lsls	r3, r4
 8000e0a:	2800      	cmp	r0, #0
 8000e0c:	ea43 0302 	orr.w	r3, r3, r2
 8000e10:	bfac      	ite	ge
 8000e12:	f100 4060 	addge.w	r0, r0, #3758096384	; 0xe0000000
 8000e16:	4a08      	ldrlt	r2, [pc, #32]	; (8000e38 <HAL_NVIC_SetPriority+0x60>)
 8000e18:	ea4f 1303 	mov.w	r3, r3, lsl #4
 8000e1c:	bfb8      	it	lt
 8000e1e:	f000 000f 	andlt.w	r0, r0, #15
 8000e22:	b2db      	uxtb	r3, r3
 8000e24:	bfaa      	itet	ge
 8000e26:	f500 4061 	addge.w	r0, r0, #57600	; 0xe100
 8000e2a:	5413      	strblt	r3, [r2, r0]
 8000e2c:	f880 3300 	strbge.w	r3, [r0, #768]	; 0x300
 8000e30:	bd30      	pop	{r4, r5, pc}
 8000e32:	bf00      	nop
 8000e34:	e000ed00 	.word	0xe000ed00
 8000e38:	e000ed14 	.word	0xe000ed14

08000e3c <HAL_NVIC_EnableIRQ>:
 8000e3c:	2800      	cmp	r0, #0
 8000e3e:	db07      	blt.n	8000e50 <HAL_NVIC_EnableIRQ+0x14>
 8000e40:	0941      	lsrs	r1, r0, #5
 8000e42:	4a04      	ldr	r2, [pc, #16]	; (8000e54 <HAL_NVIC_EnableIRQ+0x18>)
 8000e44:	f000 001f 	and.w	r0, r0, #31
 8000e48:	2301      	movs	r3, #1
 8000e4a:	4083      	lsls	r3, r0
 8000e4c:	f842 3021 	str.w	r3, [r2, r1, lsl #2]
 8000e50:	4770      	bx	lr
 8000e52:	bf00      	nop
 8000e54:	e000e100 	.word	0xe000e100

08000e58 <HAL_SYSTICK_Config>:
 8000e58:	3801      	subs	r0, #1
 8000e5a:	f1b0 7f80 	cmp.w	r0, #16777216	; 0x1000000
 8000e5e:	d20b      	bcs.n	8000e78 <HAL_SYSTICK_Config+0x20>
 8000e60:	f04f 23e0 	mov.w	r3, #3758153728	; 0xe000e000
 8000e64:	4a05      	ldr	r2, [pc, #20]	; (8000e7c <HAL_SYSTICK_Config+0x24>)
 8000e66:	6158      	str	r0, [r3, #20]
 8000e68:	21f0      	movs	r1, #240	; 0xf0
 8000e6a:	f882 1023 	strb.w	r1, [r2, #35]	; 0x23
 8000e6e:	2000      	movs	r0, #0
 8000e70:	2207      	movs	r2, #7
 8000e72:	6198      	str	r0, [r3, #24]
 8000e74:	611a      	str	r2, [r3, #16]
 8000e76:	4770      	bx	lr
 8000e78:	2001      	movs	r0, #1
 8000e7a:	4770      	bx	lr
 8000e7c:	e000ed00 	.word	0xe000ed00

08000e80 <HAL_GPIO_Init>:
 8000e80:	e92d 4ff7 	stmdb	sp!, {r0, r1, r2, r4, r5, r6, r7, r8, r9, sl, fp, lr}
 8000e84:	f8df 917c 	ldr.w	r9, [pc, #380]	; 8001004 <HAL_GPIO_Init+0x184>
 8000e88:	4c5c      	ldr	r4, [pc, #368]	; (8000ffc <HAL_GPIO_Init+0x17c>)
 8000e8a:	2300      	movs	r3, #0
 8000e8c:	680a      	ldr	r2, [r1, #0]
 8000e8e:	fa32 f503 	lsrs.w	r5, r2, r3
 8000e92:	d102      	bne.n	8000e9a <HAL_GPIO_Init+0x1a>
 8000e94:	b003      	add	sp, #12
 8000e96:	e8bd 8ff0 	ldmia.w	sp!, {r4, r5, r6, r7, r8, r9, sl, fp, pc}
 8000e9a:	2501      	movs	r5, #1
 8000e9c:	fa05 fe03 	lsl.w	lr, r5, r3
 8000ea0:	ea1e 0202 	ands.w	r2, lr, r2
 8000ea4:	f000 80a0 	beq.w	8000fe8 <HAL_GPIO_Init+0x168>
 8000ea8:	684e      	ldr	r6, [r1, #4]
 8000eaa:	2703      	movs	r7, #3
 8000eac:	f006 0503 	and.w	r5, r6, #3
 8000eb0:	ea4f 0843 	mov.w	r8, r3, lsl #1
 8000eb4:	fa07 fc08 	lsl.w	ip, r7, r8
 8000eb8:	1e6f      	subs	r7, r5, #1
 8000eba:	2f01      	cmp	r7, #1
 8000ebc:	ea6f 0c0c 	mvn.w	ip, ip
 8000ec0:	d834      	bhi.n	8000f2c <HAL_GPIO_Init+0xac>
 8000ec2:	6887      	ldr	r7, [r0, #8]
 8000ec4:	ea07 0a0c 	and.w	sl, r7, ip
 8000ec8:	68cf      	ldr	r7, [r1, #12]
 8000eca:	fa07 f708 	lsl.w	r7, r7, r8
 8000ece:	ea47 070a 	orr.w	r7, r7, sl
 8000ed2:	6087      	str	r7, [r0, #8]
 8000ed4:	6847      	ldr	r7, [r0, #4]
 8000ed6:	ea27 0e0e 	bic.w	lr, r7, lr
 8000eda:	f3c6 1700 	ubfx	r7, r6, #4, #1
 8000ede:	409f      	lsls	r7, r3
 8000ee0:	ea47 070e 	orr.w	r7, r7, lr
 8000ee4:	6047      	str	r7, [r0, #4]
 8000ee6:	68c7      	ldr	r7, [r0, #12]
 8000ee8:	ea07 0e0c 	and.w	lr, r7, ip
 8000eec:	688f      	ldr	r7, [r1, #8]
 8000eee:	fa07 f708 	lsl.w	r7, r7, r8
 8000ef2:	ea47 070e 	orr.w	r7, r7, lr
 8000ef6:	2d02      	cmp	r5, #2
 8000ef8:	60c7      	str	r7, [r0, #12]
 8000efa:	d119      	bne.n	8000f30 <HAL_GPIO_Init+0xb0>
 8000efc:	ea4f 0ad3 	mov.w	sl, r3, lsr #3
 8000f00:	eb00 0a8a 	add.w	sl, r0, sl, lsl #2
 8000f04:	f003 0b07 	and.w	fp, r3, #7
 8000f08:	f8da 7020 	ldr.w	r7, [sl, #32]
 8000f0c:	ea4f 0b8b 	mov.w	fp, fp, lsl #2
 8000f10:	f04f 0e0f 	mov.w	lr, #15
 8000f14:	fa0e fe0b 	lsl.w	lr, lr, fp
 8000f18:	ea27 0e0e 	bic.w	lr, r7, lr
 8000f1c:	690f      	ldr	r7, [r1, #16]
 8000f1e:	fa07 f70b 	lsl.w	r7, r7, fp
 8000f22:	ea47 070e 	orr.w	r7, r7, lr
 8000f26:	f8ca 7020 	str.w	r7, [sl, #32]
 8000f2a:	e001      	b.n	8000f30 <HAL_GPIO_Init+0xb0>
 8000f2c:	2d03      	cmp	r5, #3
 8000f2e:	d1da      	bne.n	8000ee6 <HAL_GPIO_Init+0x66>
 8000f30:	6807      	ldr	r7, [r0, #0]
 8000f32:	fa05 f508 	lsl.w	r5, r5, r8
 8000f36:	ea07 070c 	and.w	r7, r7, ip
 8000f3a:	433d      	orrs	r5, r7
 8000f3c:	f416 3f40 	tst.w	r6, #196608	; 0x30000
 8000f40:	6005      	str	r5, [r0, #0]
 8000f42:	d051      	beq.n	8000fe8 <HAL_GPIO_Init+0x168>
 8000f44:	f8d9 5018 	ldr.w	r5, [r9, #24]
 8000f48:	f045 0501 	orr.w	r5, r5, #1
 8000f4c:	f8c9 5018 	str.w	r5, [r9, #24]
 8000f50:	f8d9 5018 	ldr.w	r5, [r9, #24]
 8000f54:	f023 0703 	bic.w	r7, r3, #3
 8000f58:	f107 4780 	add.w	r7, r7, #1073741824	; 0x40000000
 8000f5c:	f005 0501 	and.w	r5, r5, #1
 8000f60:	f507 3780 	add.w	r7, r7, #65536	; 0x10000
 8000f64:	9501      	str	r5, [sp, #4]
 8000f66:	f003 0e03 	and.w	lr, r3, #3
 8000f6a:	9d01      	ldr	r5, [sp, #4]
 8000f6c:	68bd      	ldr	r5, [r7, #8]
 8000f6e:	ea4f 0e8e 	mov.w	lr, lr, lsl #2
 8000f72:	f04f 0c0f 	mov.w	ip, #15
 8000f76:	fa0c fc0e 	lsl.w	ip, ip, lr
 8000f7a:	f1b0 4f90 	cmp.w	r0, #1207959552	; 0x48000000
 8000f7e:	ea25 0c0c 	bic.w	ip, r5, ip
 8000f82:	d033      	beq.n	8000fec <HAL_GPIO_Init+0x16c>
 8000f84:	4d1e      	ldr	r5, [pc, #120]	; (8001000 <HAL_GPIO_Init+0x180>)
 8000f86:	42a8      	cmp	r0, r5
 8000f88:	d032      	beq.n	8000ff0 <HAL_GPIO_Init+0x170>
 8000f8a:	f505 6580 	add.w	r5, r5, #1024	; 0x400
 8000f8e:	42a8      	cmp	r0, r5
 8000f90:	d030      	beq.n	8000ff4 <HAL_GPIO_Init+0x174>
 8000f92:	f505 6580 	add.w	r5, r5, #1024	; 0x400
 8000f96:	42a8      	cmp	r0, r5
 8000f98:	d02e      	beq.n	8000ff8 <HAL_GPIO_Init+0x178>
 8000f9a:	f505 6580 	add.w	r5, r5, #1024	; 0x400
 8000f9e:	42a8      	cmp	r0, r5
 8000fa0:	bf0c      	ite	eq
 8000fa2:	2504      	moveq	r5, #4
 8000fa4:	2505      	movne	r5, #5
 8000fa6:	fa05 f50e 	lsl.w	r5, r5, lr
 8000faa:	ea45 050c 	orr.w	r5, r5, ip
 8000fae:	60bd      	str	r5, [r7, #8]
 8000fb0:	68a5      	ldr	r5, [r4, #8]
 8000fb2:	43d7      	mvns	r7, r2
 8000fb4:	f416 1f80 	tst.w	r6, #1048576	; 0x100000
 8000fb8:	bf0c      	ite	eq
 8000fba:	403d      	andeq	r5, r7
 8000fbc:	4315      	orrne	r5, r2
 8000fbe:	60a5      	str	r5, [r4, #8]
 8000fc0:	68e5      	ldr	r5, [r4, #12]
 8000fc2:	f416 1f00 	tst.w	r6, #2097152	; 0x200000
 8000fc6:	bf0c      	ite	eq
 8000fc8:	403d      	andeq	r5, r7
 8000fca:	4315      	orrne	r5, r2
 8000fcc:	60e5      	str	r5, [r4, #12]
 8000fce:	6865      	ldr	r5, [r4, #4]
 8000fd0:	f416 3f00 	tst.w	r6, #131072	; 0x20000
 8000fd4:	bf0c      	ite	eq
 8000fd6:	403d      	andeq	r5, r7
 8000fd8:	4315      	orrne	r5, r2
 8000fda:	6065      	str	r5, [r4, #4]
 8000fdc:	6825      	ldr	r5, [r4, #0]
 8000fde:	03f6      	lsls	r6, r6, #15
 8000fe0:	bf54      	ite	pl
 8000fe2:	403d      	andpl	r5, r7
 8000fe4:	4315      	orrmi	r5, r2
 8000fe6:	6025      	str	r5, [r4, #0]
 8000fe8:	3301      	adds	r3, #1
 8000fea:	e74f      	b.n	8000e8c <HAL_GPIO_Init+0xc>
 8000fec:	2500      	movs	r5, #0
 8000fee:	e7da      	b.n	8000fa6 <HAL_GPIO_Init+0x126>
 8000ff0:	2501      	movs	r5, #1
 8000ff2:	e7d8      	b.n	8000fa6 <HAL_GPIO_Init+0x126>
 8000ff4:	2502      	movs	r5, #2
 8000ff6:	e7d6      	b.n	8000fa6 <HAL_GPIO_Init+0x126>
 8000ff8:	2503      	movs	r5, #3
 8000ffa:	e7d4      	b.n	8000fa6 <HAL_GPIO_Init+0x126>
 8000ffc:	40010400 	.word	0x40010400
 8001000:	48000400 	.word	0x48000400
 8001004:	40021000 	.word	0x40021000

08001008 <HAL_GPIO_ReadPin>:
 8001008:	6903      	ldr	r3, [r0, #16]
 800100a:	4219      	tst	r1, r3
 800100c:	bf14      	ite	ne
 800100e:	2001      	movne	r0, #1
 8001010:	2000      	moveq	r0, #0
 8001012:	4770      	bx	lr

08001014 <HAL_GPIO_WritePin>:
 8001014:	b10a      	cbz	r2, 800101a <HAL_GPIO_WritePin+0x6>
 8001016:	6181      	str	r1, [r0, #24]
 8001018:	4770      	bx	lr
 800101a:	6281      	str	r1, [r0, #40]	; 0x28
 800101c:	4770      	bx	lr
	...

08001020 <HAL_GPIO_EXTI_IRQHandler>:
 8001020:	4a04      	ldr	r2, [pc, #16]	; (8001034 <HAL_GPIO_EXTI_IRQHandler+0x14>)
 8001022:	6951      	ldr	r1, [r2, #20]
 8001024:	4201      	tst	r1, r0
 8001026:	b508      	push	{r3, lr}
 8001028:	d002      	beq.n	8001030 <HAL_GPIO_EXTI_IRQHandler+0x10>
 800102a:	6150      	str	r0, [r2, #20]
 800102c:	f7ff fb28 	bl	8000680 <HAL_GPIO_EXTI_Callback>
 8001030:	bd08      	pop	{r3, pc}
 8001032:	bf00      	nop
 8001034:	40010400 	.word	0x40010400

08001038 <HAL_PCD_Init>:
 8001038:	b5f0      	push	{r4, r5, r6, r7, lr}
 800103a:	4604      	mov	r4, r0
 800103c:	b087      	sub	sp, #28
 800103e:	2800      	cmp	r0, #0
 8001040:	d04d      	beq.n	80010de <HAL_PCD_Init+0xa6>
 8001042:	f890 32a9 	ldrb.w	r3, [r0, #681]	; 0x2a9
 8001046:	f003 02ff 	and.w	r2, r3, #255	; 0xff
 800104a:	b91b      	cbnz	r3, 8001054 <HAL_PCD_Init+0x1c>
 800104c:	f880 22a8 	strb.w	r2, [r0, #680]	; 0x2a8
 8001050:	f002 fe14 	bl	8003c7c <HAL_PCD_MspInit>
 8001054:	2303      	movs	r3, #3
 8001056:	f884 32a9 	strb.w	r3, [r4, #681]	; 0x2a9
 800105a:	6820      	ldr	r0, [r4, #0]
 800105c:	f001 fa75 	bl	800254a <USB_DisableGlobalInt>
 8001060:	2300      	movs	r3, #0
 8001062:	6865      	ldr	r5, [r4, #4]
 8001064:	2628      	movs	r6, #40	; 0x28
 8001066:	2701      	movs	r7, #1
 8001068:	4619      	mov	r1, r3
 800106a:	b2d8      	uxtb	r0, r3
 800106c:	4285      	cmp	r5, r0
 800106e:	f103 0301 	add.w	r3, r3, #1
 8001072:	d81b      	bhi.n	80010ac <HAL_PCD_Init+0x74>
 8001074:	2300      	movs	r3, #0
 8001076:	2628      	movs	r6, #40	; 0x28
 8001078:	4619      	mov	r1, r3
 800107a:	b2d8      	uxtb	r0, r3
 800107c:	4285      	cmp	r5, r0
 800107e:	f103 0301 	add.w	r3, r3, #1
 8001082:	d81f      	bhi.n	80010c4 <HAL_PCD_Init+0x8c>
 8001084:	f104 0610 	add.w	r6, r4, #16
 8001088:	ce0f      	ldmia	r6!, {r0, r1, r2, r3}
 800108a:	466d      	mov	r5, sp
 800108c:	c50f      	stmia	r5!, {r0, r1, r2, r3}
 800108e:	6833      	ldr	r3, [r6, #0]
 8001090:	602b      	str	r3, [r5, #0]
 8001092:	1d23      	adds	r3, r4, #4
 8001094:	cb0e      	ldmia	r3, {r1, r2, r3}
 8001096:	6820      	ldr	r0, [r4, #0]
 8001098:	f001 fa61 	bl	800255e <USB_DevInit>
 800109c:	2000      	movs	r0, #0
 800109e:	2301      	movs	r3, #1
 80010a0:	f884 0024 	strb.w	r0, [r4, #36]	; 0x24
 80010a4:	f884 32a9 	strb.w	r3, [r4, #681]	; 0x2a9
 80010a8:	b007      	add	sp, #28
 80010aa:	bdf0      	pop	{r4, r5, r6, r7, pc}
 80010ac:	fb06 4200 	mla	r2, r6, r0, r4
 80010b0:	e9c2 110e 	strd	r1, r1, [r2, #56]	; 0x38
 80010b4:	f882 7029 	strb.w	r7, [r2, #41]	; 0x29
 80010b8:	f882 0028 	strb.w	r0, [r2, #40]	; 0x28
 80010bc:	f882 102b 	strb.w	r1, [r2, #43]	; 0x2b
 80010c0:	6411      	str	r1, [r2, #64]	; 0x40
 80010c2:	e7d2      	b.n	800106a <HAL_PCD_Init+0x32>
 80010c4:	fb06 4200 	mla	r2, r6, r0, r4
 80010c8:	e9c2 115e 	strd	r1, r1, [r2, #376]	; 0x178
 80010cc:	f882 1169 	strb.w	r1, [r2, #361]	; 0x169
 80010d0:	f882 0168 	strb.w	r0, [r2, #360]	; 0x168
 80010d4:	f882 116b 	strb.w	r1, [r2, #363]	; 0x16b
 80010d8:	f8c2 1180 	str.w	r1, [r2, #384]	; 0x180
 80010dc:	e7cd      	b.n	800107a <HAL_PCD_Init+0x42>
 80010de:	2001      	movs	r0, #1
 80010e0:	e7e2      	b.n	80010a8 <HAL_PCD_Init+0x70>

080010e2 <HAL_PCD_Start>:
 80010e2:	b538      	push	{r3, r4, r5, lr}
 80010e4:	f890 32a8 	ldrb.w	r3, [r0, #680]	; 0x2a8
 80010e8:	2b01      	cmp	r3, #1
 80010ea:	4604      	mov	r4, r0
 80010ec:	d010      	beq.n	8001110 <HAL_PCD_Start+0x2e>
 80010ee:	2501      	movs	r5, #1
 80010f0:	f880 52a8 	strb.w	r5, [r0, #680]	; 0x2a8
 80010f4:	6800      	ldr	r0, [r0, #0]
 80010f6:	f001 fa1f 	bl	8002538 <USB_EnableGlobalInt>
 80010fa:	4629      	mov	r1, r5
 80010fc:	4620      	mov	r0, r4
 80010fe:	f002 feea 	bl	8003ed6 <HAL_PCDEx_SetConnectionState>
 8001102:	6820      	ldr	r0, [r4, #0]
 8001104:	f001 fce6 	bl	8002ad4 <USB_DevConnect>
 8001108:	2000      	movs	r0, #0
 800110a:	f884 02a8 	strb.w	r0, [r4, #680]	; 0x2a8
 800110e:	bd38      	pop	{r3, r4, r5, pc}
 8001110:	2002      	movs	r0, #2
 8001112:	e7fc      	b.n	800110e <HAL_PCD_Start+0x2c>

08001114 <HAL_PCD_SetAddress>:
 8001114:	b510      	push	{r4, lr}
 8001116:	f890 22a8 	ldrb.w	r2, [r0, #680]	; 0x2a8
 800111a:	2a01      	cmp	r2, #1
 800111c:	4604      	mov	r4, r0
 800111e:	d00b      	beq.n	8001138 <HAL_PCD_SetAddress+0x24>
 8001120:	2201      	movs	r2, #1
 8001122:	f880 22a8 	strb.w	r2, [r0, #680]	; 0x2a8
 8001126:	f880 1024 	strb.w	r1, [r0, #36]	; 0x24
 800112a:	6800      	ldr	r0, [r0, #0]
 800112c:	f001 fccc 	bl	8002ac8 <USB_SetDevAddress>
 8001130:	2000      	movs	r0, #0
 8001132:	f884 02a8 	strb.w	r0, [r4, #680]	; 0x2a8
 8001136:	bd10      	pop	{r4, pc}
 8001138:	2002      	movs	r0, #2
 800113a:	e7fc      	b.n	8001136 <HAL_PCD_SetAddress+0x22>

0800113c <HAL_PCD_IRQHandler>:
 800113c:	e92d 4ff7 	stmdb	sp!, {r0, r1, r2, r4, r5, r6, r7, r8, r9, sl, fp, lr}
 8001140:	4604      	mov	r4, r0
 8001142:	6800      	ldr	r0, [r0, #0]
 8001144:	f001 fcc8 	bl	8002ad8 <USB_ReadInterrupts>
 8001148:	f410 4100 	ands.w	r1, r0, #32768	; 0x8000
 800114c:	f000 843d 	beq.w	80019ca <HAL_PCD_IRQHandler+0x88e>
 8001150:	f8df b974 	ldr.w	fp, [pc, #2420]	; 8001ac8 <HAL_PCD_IRQHandler+0x98c>
 8001154:	f8df 8974 	ldr.w	r8, [pc, #2420]	; 8001acc <HAL_PCD_IRQHandler+0x990>
 8001158:	6820      	ldr	r0, [r4, #0]
 800115a:	f8b0 3044 	ldrh.w	r3, [r0, #68]	; 0x44
 800115e:	041a      	lsls	r2, r3, #16
 8001160:	d402      	bmi.n	8001168 <HAL_PCD_IRQHandler+0x2c>
 8001162:	b003      	add	sp, #12
 8001164:	e8bd 8ff0 	ldmia.w	sp!, {r4, r5, r6, r7, r8, r9, sl, fp, pc}
 8001168:	f8b0 7044 	ldrh.w	r7, [r0, #68]	; 0x44
 800116c:	b2b9      	uxth	r1, r7
 800116e:	f017 070f 	ands.w	r7, r7, #15
 8001172:	f040 80c6 	bne.w	8001302 <HAL_PCD_IRQHandler+0x1c6>
 8001176:	f011 0110 	ands.w	r1, r1, #16
 800117a:	d12b      	bne.n	80011d4 <HAL_PCD_IRQHandler+0x98>
 800117c:	8803      	ldrh	r3, [r0, #0]
 800117e:	b29b      	uxth	r3, r3
 8001180:	ea03 030b 	and.w	r3, r3, fp
 8001184:	f443 4300 	orr.w	r3, r3, #32768	; 0x8000
 8001188:	8003      	strh	r3, [r0, #0]
 800118a:	f8b0 3050 	ldrh.w	r3, [r0, #80]	; 0x50
 800118e:	f894 2028 	ldrb.w	r2, [r4, #40]	; 0x28
 8001192:	b29b      	uxth	r3, r3
 8001194:	eb03 03c2 	add.w	r3, r3, r2, lsl #3
 8001198:	eb00 0343 	add.w	r3, r0, r3, lsl #1
 800119c:	6be2      	ldr	r2, [r4, #60]	; 0x3c
 800119e:	f8b3 3404 	ldrh.w	r3, [r3, #1028]	; 0x404
 80011a2:	f3c3 0309 	ubfx	r3, r3, #0, #10
 80011a6:	441a      	add	r2, r3
 80011a8:	6463      	str	r3, [r4, #68]	; 0x44
 80011aa:	63e2      	str	r2, [r4, #60]	; 0x3c
 80011ac:	4620      	mov	r0, r4
 80011ae:	f002 fdb6 	bl	8003d1e <HAL_PCD_DataInStageCallback>
 80011b2:	f894 3024 	ldrb.w	r3, [r4, #36]	; 0x24
 80011b6:	2b00      	cmp	r3, #0
 80011b8:	d0ce      	beq.n	8001158 <HAL_PCD_IRQHandler+0x1c>
 80011ba:	6c22      	ldr	r2, [r4, #64]	; 0x40
 80011bc:	6821      	ldr	r1, [r4, #0]
 80011be:	2a00      	cmp	r2, #0
 80011c0:	d1ca      	bne.n	8001158 <HAL_PCD_IRQHandler+0x1c>
 80011c2:	f894 3024 	ldrb.w	r3, [r4, #36]	; 0x24
 80011c6:	f043 0380 	orr.w	r3, r3, #128	; 0x80
 80011ca:	f8a1 304c 	strh.w	r3, [r1, #76]	; 0x4c
 80011ce:	f884 2024 	strb.w	r2, [r4, #36]	; 0x24
 80011d2:	e7c1      	b.n	8001158 <HAL_PCD_IRQHandler+0x1c>
 80011d4:	8805      	ldrh	r5, [r0, #0]
 80011d6:	b2ab      	uxth	r3, r5
 80011d8:	f415 6500 	ands.w	r5, r5, #2048	; 0x800
 80011dc:	d021      	beq.n	8001222 <HAL_PCD_IRQHandler+0xe6>
 80011de:	f8b0 3050 	ldrh.w	r3, [r0, #80]	; 0x50
 80011e2:	f894 2168 	ldrb.w	r2, [r4, #360]	; 0x168
 80011e6:	b29b      	uxth	r3, r3
 80011e8:	eb03 03c2 	add.w	r3, r3, r2, lsl #3
 80011ec:	eb00 0343 	add.w	r3, r0, r3, lsl #1
 80011f0:	f8b4 216e 	ldrh.w	r2, [r4, #366]	; 0x16e
 80011f4:	f8b3 340c 	ldrh.w	r3, [r3, #1036]	; 0x40c
 80011f8:	f3c3 0309 	ubfx	r3, r3, #0, #10
 80011fc:	f8c4 3184 	str.w	r3, [r4, #388]	; 0x184
 8001200:	f504 712c 	add.w	r1, r4, #688	; 0x2b0
 8001204:	f001 febe 	bl	8002f84 <USB_ReadPMA>
 8001208:	6822      	ldr	r2, [r4, #0]
 800120a:	8813      	ldrh	r3, [r2, #0]
 800120c:	f023 0370 	bic.w	r3, r3, #112	; 0x70
 8001210:	051b      	lsls	r3, r3, #20
 8001212:	0d1b      	lsrs	r3, r3, #20
 8001214:	f043 0380 	orr.w	r3, r3, #128	; 0x80
 8001218:	8013      	strh	r3, [r2, #0]
 800121a:	4620      	mov	r0, r4
 800121c:	f002 fd70 	bl	8003d00 <HAL_PCD_SetupStageCallback>
 8001220:	e79a      	b.n	8001158 <HAL_PCD_IRQHandler+0x1c>
 8001222:	041b      	lsls	r3, r3, #16
 8001224:	d598      	bpl.n	8001158 <HAL_PCD_IRQHandler+0x1c>
 8001226:	8803      	ldrh	r3, [r0, #0]
 8001228:	f023 0370 	bic.w	r3, r3, #112	; 0x70
 800122c:	051b      	lsls	r3, r3, #20
 800122e:	0d1b      	lsrs	r3, r3, #20
 8001230:	f043 0380 	orr.w	r3, r3, #128	; 0x80
 8001234:	8003      	strh	r3, [r0, #0]
 8001236:	f8b0 3050 	ldrh.w	r3, [r0, #80]	; 0x50
 800123a:	f894 2168 	ldrb.w	r2, [r4, #360]	; 0x168
 800123e:	b29b      	uxth	r3, r3
 8001240:	eb03 03c2 	add.w	r3, r3, r2, lsl #3
 8001244:	eb00 0343 	add.w	r3, r0, r3, lsl #1
 8001248:	f8b3 340c 	ldrh.w	r3, [r3, #1036]	; 0x40c
 800124c:	f3c3 0309 	ubfx	r3, r3, #0, #10
 8001250:	f8c4 3184 	str.w	r3, [r4, #388]	; 0x184
 8001254:	b18b      	cbz	r3, 800127a <HAL_PCD_IRQHandler+0x13e>
 8001256:	f8d4 117c 	ldr.w	r1, [r4, #380]	; 0x17c
 800125a:	b171      	cbz	r1, 800127a <HAL_PCD_IRQHandler+0x13e>
 800125c:	f8b4 216e 	ldrh.w	r2, [r4, #366]	; 0x16e
 8001260:	f001 fe90 	bl	8002f84 <USB_ReadPMA>
 8001264:	f8d4 317c 	ldr.w	r3, [r4, #380]	; 0x17c
 8001268:	f8d4 2184 	ldr.w	r2, [r4, #388]	; 0x184
 800126c:	4413      	add	r3, r2
 800126e:	f8c4 317c 	str.w	r3, [r4, #380]	; 0x17c
 8001272:	4629      	mov	r1, r5
 8001274:	4620      	mov	r0, r4
 8001276:	f002 fd49 	bl	8003d0c <HAL_PCD_DataOutStageCallback>
 800127a:	6821      	ldr	r1, [r4, #0]
 800127c:	880a      	ldrh	r2, [r1, #0]
 800127e:	0517      	lsls	r7, r2, #20
 8001280:	b293      	uxth	r3, r2
 8001282:	f53f af69 	bmi.w	8001158 <HAL_PCD_IRQHandler+0x1c>
 8001286:	f403 5340 	and.w	r3, r3, #12288	; 0x3000
 800128a:	f5b3 5f40 	cmp.w	r3, #12288	; 0x3000
 800128e:	f43f af63 	beq.w	8001158 <HAL_PCD_IRQHandler+0x1c>
 8001292:	f8b1 3050 	ldrh.w	r3, [r1, #80]	; 0x50
 8001296:	f201 400c 	addw	r0, r1, #1036	; 0x40c
 800129a:	b29b      	uxth	r3, r3
 800129c:	5ac2      	ldrh	r2, [r0, r3]
 800129e:	f3c2 0209 	ubfx	r2, r2, #0, #10
 80012a2:	52c2      	strh	r2, [r0, r3]
 80012a4:	f8d4 2178 	ldr.w	r2, [r4, #376]	; 0x178
 80012a8:	2a3e      	cmp	r2, #62	; 0x3e
 80012aa:	d90c      	bls.n	80012c6 <HAL_PCD_IRQHandler+0x18a>
 80012ac:	0955      	lsrs	r5, r2, #5
 80012ae:	06d6      	lsls	r6, r2, #27
 80012b0:	5ac2      	ldrh	r2, [r0, r3]
 80012b2:	bf08      	it	eq
 80012b4:	f105 35ff 	addeq.w	r5, r5, #4294967295
 80012b8:	b292      	uxth	r2, r2
 80012ba:	ea42 2285 	orr.w	r2, r2, r5, lsl #10
 80012be:	ea42 0208 	orr.w	r2, r2, r8
 80012c2:	b292      	uxth	r2, r2
 80012c4:	e004      	b.n	80012d0 <HAL_PCD_IRQHandler+0x194>
 80012c6:	b99a      	cbnz	r2, 80012f0 <HAL_PCD_IRQHandler+0x1b4>
 80012c8:	5ac2      	ldrh	r2, [r0, r3]
 80012ca:	b292      	uxth	r2, r2
 80012cc:	f442 4200 	orr.w	r2, r2, #32768	; 0x8000
 80012d0:	52c2      	strh	r2, [r0, r3]
 80012d2:	880b      	ldrh	r3, [r1, #0]
 80012d4:	f423 4380 	bic.w	r3, r3, #16384	; 0x4000
 80012d8:	f023 0370 	bic.w	r3, r3, #112	; 0x70
 80012dc:	041b      	lsls	r3, r3, #16
 80012de:	0c1b      	lsrs	r3, r3, #16
 80012e0:	f483 5340 	eor.w	r3, r3, #12288	; 0x3000
 80012e4:	f443 4300 	orr.w	r3, r3, #32768	; 0x8000
 80012e8:	f043 0380 	orr.w	r3, r3, #128	; 0x80
 80012ec:	800b      	strh	r3, [r1, #0]
 80012ee:	e733      	b.n	8001158 <HAL_PCD_IRQHandler+0x1c>
 80012f0:	0855      	lsrs	r5, r2, #1
 80012f2:	07d2      	lsls	r2, r2, #31
 80012f4:	5ac2      	ldrh	r2, [r0, r3]
 80012f6:	bf48      	it	mi
 80012f8:	3501      	addmi	r5, #1
 80012fa:	b292      	uxth	r2, r2
 80012fc:	ea42 2285 	orr.w	r2, r2, r5, lsl #10
 8001300:	e7df      	b.n	80012c2 <HAL_PCD_IRQHandler+0x186>
 8001302:	b23d      	sxth	r5, r7
 8001304:	f830 3025 	ldrh.w	r3, [r0, r5, lsl #2]
 8001308:	b29e      	uxth	r6, r3
 800130a:	041b      	lsls	r3, r3, #16
 800130c:	f140 80f3 	bpl.w	80014f6 <HAL_PCD_IRQHandler+0x3ba>
 8001310:	f830 3025 	ldrh.w	r3, [r0, r5, lsl #2]
 8001314:	f023 0370 	bic.w	r3, r3, #112	; 0x70
 8001318:	051b      	lsls	r3, r3, #20
 800131a:	0d1b      	lsrs	r3, r3, #20
 800131c:	f043 0380 	orr.w	r3, r3, #128	; 0x80
 8001320:	2128      	movs	r1, #40	; 0x28
 8001322:	f820 3025 	strh.w	r3, [r0, r5, lsl #2]
 8001326:	fb01 4107 	mla	r1, r1, r7, r4
 800132a:	f500 6c80 	add.w	ip, r0, #1024	; 0x400
 800132e:	f891 3174 	ldrb.w	r3, [r1, #372]	; 0x174
 8001332:	b9bb      	cbnz	r3, 8001364 <HAL_PCD_IRQHandler+0x228>
 8001334:	f8b0 3050 	ldrh.w	r3, [r0, #80]	; 0x50
 8001338:	f891 2168 	ldrb.w	r2, [r1, #360]	; 0x168
 800133c:	b29b      	uxth	r3, r3
 800133e:	3306      	adds	r3, #6
 8001340:	eb03 03c2 	add.w	r3, r3, r2, lsl #3
 8001344:	f83c 9013 	ldrh.w	r9, [ip, r3, lsl #1]
 8001348:	f3c9 0909 	ubfx	r9, r9, #0, #10
 800134c:	f1b9 0f00 	cmp.w	r9, #0
 8001350:	f000 80b5 	beq.w	80014be <HAL_PCD_IRQHandler+0x382>
 8001354:	f8b1 216e 	ldrh.w	r2, [r1, #366]	; 0x16e
 8001358:	464b      	mov	r3, r9
 800135a:	f8d1 117c 	ldr.w	r1, [r1, #380]	; 0x17c
 800135e:	f001 fe11 	bl	8002f84 <USB_ReadPMA>
 8001362:	e0ac      	b.n	80014be <HAL_PCD_IRQHandler+0x382>
 8001364:	f891 316b 	ldrb.w	r3, [r1, #363]	; 0x16b
 8001368:	2b02      	cmp	r3, #2
 800136a:	f891 3168 	ldrb.w	r3, [r1, #360]	; 0x168
 800136e:	f040 8082 	bne.w	8001476 <HAL_PCD_IRQHandler+0x33a>
 8001372:	f8b0 e050 	ldrh.w	lr, [r0, #80]	; 0x50
 8001376:	f8d1 2180 	ldr.w	r2, [r1, #384]	; 0x180
 800137a:	ea4f 09c3 	mov.w	r9, r3, lsl #3
 800137e:	f416 4a80 	ands.w	sl, r6, #16384	; 0x4000
 8001382:	fa19 fe8e 	uxtah	lr, r9, lr
 8001386:	d03b      	beq.n	8001400 <HAL_PCD_IRQHandler+0x2c4>
 8001388:	f10e 0e02 	add.w	lr, lr, #2
 800138c:	f83c 901e 	ldrh.w	r9, [ip, lr, lsl #1]
 8001390:	f3c9 0909 	ubfx	r9, r9, #0, #10
 8001394:	4591      	cmp	r9, r2
 8001396:	d913      	bls.n	80013c0 <HAL_PCD_IRQHandler+0x284>
 8001398:	2200      	movs	r2, #0
 800139a:	f8c1 2180 	str.w	r2, [r1, #384]	; 0x180
 800139e:	f830 2023 	ldrh.w	r2, [r0, r3, lsl #2]
 80013a2:	f422 4280 	bic.w	r2, r2, #16384	; 0x4000
 80013a6:	f022 0270 	bic.w	r2, r2, #112	; 0x70
 80013aa:	0412      	lsls	r2, r2, #16
 80013ac:	0c12      	lsrs	r2, r2, #16
 80013ae:	f482 5200 	eor.w	r2, r2, #8192	; 0x2000
 80013b2:	f442 4200 	orr.w	r2, r2, #32768	; 0x8000
 80013b6:	f042 0280 	orr.w	r2, r2, #128	; 0x80
 80013ba:	f820 2023 	strh.w	r2, [r0, r3, lsl #2]
 80013be:	e005      	b.n	80013cc <HAL_PCD_IRQHandler+0x290>
 80013c0:	eba2 0209 	sub.w	r2, r2, r9
 80013c4:	f8c1 2180 	str.w	r2, [r1, #384]	; 0x180
 80013c8:	2a00      	cmp	r2, #0
 80013ca:	d0e8      	beq.n	800139e <HAL_PCD_IRQHandler+0x262>
 80013cc:	0671      	lsls	r1, r6, #25
 80013ce:	d50d      	bpl.n	80013ec <HAL_PCD_IRQHandler+0x2b0>
 80013d0:	f830 2023 	ldrh.w	r2, [r0, r3, lsl #2]
 80013d4:	f422 42e0 	bic.w	r2, r2, #28672	; 0x7000
 80013d8:	f022 0270 	bic.w	r2, r2, #112	; 0x70
 80013dc:	0412      	lsls	r2, r2, #16
 80013de:	0c12      	lsrs	r2, r2, #16
 80013e0:	f442 4200 	orr.w	r2, r2, #32768	; 0x8000
 80013e4:	f042 02c0 	orr.w	r2, r2, #192	; 0xc0
 80013e8:	f820 2023 	strh.w	r2, [r0, r3, lsl #2]
 80013ec:	f1b9 0f00 	cmp.w	r9, #0
 80013f0:	d065      	beq.n	80014be <HAL_PCD_IRQHandler+0x382>
 80013f2:	2128      	movs	r1, #40	; 0x28
 80013f4:	fb01 4107 	mla	r1, r1, r7, r4
 80013f8:	f8b1 2170 	ldrh.w	r2, [r1, #368]	; 0x170
 80013fc:	464b      	mov	r3, r9
 80013fe:	e7ac      	b.n	800135a <HAL_PCD_IRQHandler+0x21e>
 8001400:	f10e 0e06 	add.w	lr, lr, #6
 8001404:	f83c 901e 	ldrh.w	r9, [ip, lr, lsl #1]
 8001408:	f3c9 0909 	ubfx	r9, r9, #0, #10
 800140c:	4591      	cmp	r9, r2
 800140e:	d912      	bls.n	8001436 <HAL_PCD_IRQHandler+0x2fa>
 8001410:	f8c1 a180 	str.w	sl, [r1, #384]	; 0x180
 8001414:	f830 2023 	ldrh.w	r2, [r0, r3, lsl #2]
 8001418:	f422 4280 	bic.w	r2, r2, #16384	; 0x4000
 800141c:	f022 0270 	bic.w	r2, r2, #112	; 0x70
 8001420:	0412      	lsls	r2, r2, #16
 8001422:	0c12      	lsrs	r2, r2, #16
 8001424:	f482 5200 	eor.w	r2, r2, #8192	; 0x2000
 8001428:	f442 4200 	orr.w	r2, r2, #32768	; 0x8000
 800142c:	f042 0280 	orr.w	r2, r2, #128	; 0x80
 8001430:	f820 2023 	strh.w	r2, [r0, r3, lsl #2]
 8001434:	e005      	b.n	8001442 <HAL_PCD_IRQHandler+0x306>
 8001436:	eba2 0209 	sub.w	r2, r2, r9
 800143a:	f8c1 2180 	str.w	r2, [r1, #384]	; 0x180
 800143e:	2a00      	cmp	r2, #0
 8001440:	d0e8      	beq.n	8001414 <HAL_PCD_IRQHandler+0x2d8>
 8001442:	0672      	lsls	r2, r6, #25
 8001444:	d40d      	bmi.n	8001462 <HAL_PCD_IRQHandler+0x326>
 8001446:	f830 2023 	ldrh.w	r2, [r0, r3, lsl #2]
 800144a:	f422 42e0 	bic.w	r2, r2, #28672	; 0x7000
 800144e:	f022 0270 	bic.w	r2, r2, #112	; 0x70
 8001452:	0412      	lsls	r2, r2, #16
 8001454:	0c12      	lsrs	r2, r2, #16
 8001456:	f442 4200 	orr.w	r2, r2, #32768	; 0x8000
 800145a:	f042 02c0 	orr.w	r2, r2, #192	; 0xc0
 800145e:	f820 2023 	strh.w	r2, [r0, r3, lsl #2]
 8001462:	f1b9 0f00 	cmp.w	r9, #0
 8001466:	d02a      	beq.n	80014be <HAL_PCD_IRQHandler+0x382>
 8001468:	2128      	movs	r1, #40	; 0x28
 800146a:	fb01 4107 	mla	r1, r1, r7, r4
 800146e:	f8b1 2172 	ldrh.w	r2, [r1, #370]	; 0x172
 8001472:	464b      	mov	r3, r9
 8001474:	e771      	b.n	800135a <HAL_PCD_IRQHandler+0x21e>
 8001476:	f830 2023 	ldrh.w	r2, [r0, r3, lsl #2]
 800147a:	f422 42e0 	bic.w	r2, r2, #28672	; 0x7000
 800147e:	f022 0270 	bic.w	r2, r2, #112	; 0x70
 8001482:	0412      	lsls	r2, r2, #16
 8001484:	0c12      	lsrs	r2, r2, #16
 8001486:	f442 4200 	orr.w	r2, r2, #32768	; 0x8000
 800148a:	f042 02c0 	orr.w	r2, r2, #192	; 0xc0
 800148e:	f820 2023 	strh.w	r2, [r0, r3, lsl #2]
 8001492:	f891 e168 	ldrb.w	lr, [r1, #360]	; 0x168
 8001496:	f830 302e 	ldrh.w	r3, [r0, lr, lsl #2]
 800149a:	f413 4f80 	tst.w	r3, #16384	; 0x4000
 800149e:	f8b0 3050 	ldrh.w	r3, [r0, #80]	; 0x50
 80014a2:	f04f 0208 	mov.w	r2, #8
 80014a6:	b29b      	uxth	r3, r3
 80014a8:	d05e      	beq.n	8001568 <HAL_PCD_IRQHandler+0x42c>
 80014aa:	3302      	adds	r3, #2
 80014ac:	fb12 330e 	smlabb	r3, r2, lr, r3
 80014b0:	f83c 9013 	ldrh.w	r9, [ip, r3, lsl #1]
 80014b4:	f3c9 0909 	ubfx	r9, r9, #0, #10
 80014b8:	f1b9 0f00 	cmp.w	r9, #0
 80014bc:	d19c      	bne.n	80013f8 <HAL_PCD_IRQHandler+0x2bc>
 80014be:	2128      	movs	r1, #40	; 0x28
 80014c0:	fb01 4307 	mla	r3, r1, r7, r4
 80014c4:	f8d3 2184 	ldr.w	r2, [r3, #388]	; 0x184
 80014c8:	444a      	add	r2, r9
 80014ca:	f8c3 2184 	str.w	r2, [r3, #388]	; 0x184
 80014ce:	f8d3 217c 	ldr.w	r2, [r3, #380]	; 0x17c
 80014d2:	444a      	add	r2, r9
 80014d4:	f8c3 217c 	str.w	r2, [r3, #380]	; 0x17c
 80014d8:	f8d3 2180 	ldr.w	r2, [r3, #384]	; 0x180
 80014dc:	b11a      	cbz	r2, 80014e6 <HAL_PCD_IRQHandler+0x3aa>
 80014de:	f8d3 3178 	ldr.w	r3, [r3, #376]	; 0x178
 80014e2:	4599      	cmp	r9, r3
 80014e4:	d24b      	bcs.n	800157e <HAL_PCD_IRQHandler+0x442>
 80014e6:	2328      	movs	r3, #40	; 0x28
 80014e8:	fb03 4307 	mla	r3, r3, r7, r4
 80014ec:	4620      	mov	r0, r4
 80014ee:	f893 1168 	ldrb.w	r1, [r3, #360]	; 0x168
 80014f2:	f002 fc0b 	bl	8003d0c <HAL_PCD_DataOutStageCallback>
 80014f6:	0633      	lsls	r3, r6, #24
 80014f8:	6820      	ldr	r0, [r4, #0]
 80014fa:	f57f ae2d 	bpl.w	8001158 <HAL_PCD_IRQHandler+0x1c>
 80014fe:	f830 3025 	ldrh.w	r3, [r0, r5, lsl #2]
 8001502:	b29b      	uxth	r3, r3
 8001504:	ea03 030b 	and.w	r3, r3, fp
 8001508:	f443 4300 	orr.w	r3, r3, #32768	; 0x8000
 800150c:	f820 3025 	strh.w	r3, [r0, r5, lsl #2]
 8001510:	eb05 0585 	add.w	r5, r5, r5, lsl #2
 8001514:	eb04 05c5 	add.w	r5, r4, r5, lsl #3
 8001518:	f04f 0c28 	mov.w	ip, #40	; 0x28
 800151c:	f895 302b 	ldrb.w	r3, [r5, #43]	; 0x2b
 8001520:	2b01      	cmp	r3, #1
 8001522:	d157      	bne.n	80015d4 <HAL_PCD_IRQHandler+0x498>
 8001524:	fb0c 4c07 	mla	ip, ip, r7, r4
 8001528:	2700      	movs	r7, #0
 800152a:	f89c 3034 	ldrb.w	r3, [ip, #52]	; 0x34
 800152e:	f8cc 7040 	str.w	r7, [ip, #64]	; 0x40
 8001532:	b3bb      	cbz	r3, 80015a4 <HAL_PCD_IRQHandler+0x468>
 8001534:	f016 0640 	ands.w	r6, r6, #64	; 0x40
 8001538:	f895 3029 	ldrb.w	r3, [r5, #41]	; 0x29
 800153c:	f895 2028 	ldrb.w	r2, [r5, #40]	; 0x28
 8001540:	d036      	beq.n	80015b0 <HAL_PCD_IRQHandler+0x474>
 8001542:	bb23      	cbnz	r3, 800158e <HAL_PCD_IRQHandler+0x452>
 8001544:	f8b0 3050 	ldrh.w	r3, [r0, #80]	; 0x50
 8001548:	f200 4004 	addw	r0, r0, #1028	; 0x404
 800154c:	fa10 f383 	uxtah	r3, r0, r3
 8001550:	eb03 1302 	add.w	r3, r3, r2, lsl #4
 8001554:	881a      	ldrh	r2, [r3, #0]
 8001556:	f3c2 0209 	ubfx	r2, r2, #0, #10
 800155a:	801a      	strh	r2, [r3, #0]
 800155c:	881a      	ldrh	r2, [r3, #0]
 800155e:	b292      	uxth	r2, r2
 8001560:	f442 4200 	orr.w	r2, r2, #32768	; 0x8000
 8001564:	801a      	strh	r2, [r3, #0]
 8001566:	e01d      	b.n	80015a4 <HAL_PCD_IRQHandler+0x468>
 8001568:	3306      	adds	r3, #6
 800156a:	fb12 320e 	smlabb	r2, r2, lr, r3
 800156e:	f83c 9012 	ldrh.w	r9, [ip, r2, lsl #1]
 8001572:	f3c9 0909 	ubfx	r9, r9, #0, #10
 8001576:	f1b9 0f00 	cmp.w	r9, #0
 800157a:	d0a0      	beq.n	80014be <HAL_PCD_IRQHandler+0x382>
 800157c:	e777      	b.n	800146e <HAL_PCD_IRQHandler+0x332>
 800157e:	fb01 4107 	mla	r1, r1, r7, r4
 8001582:	6820      	ldr	r0, [r4, #0]
 8001584:	f501 71b4 	add.w	r1, r1, #360	; 0x168
 8001588:	f001 faba 	bl	8002b00 <USB_EPStartXfer>
 800158c:	e7b3      	b.n	80014f6 <HAL_PCD_IRQHandler+0x3ba>
 800158e:	2b01      	cmp	r3, #1
 8001590:	d108      	bne.n	80015a4 <HAL_PCD_IRQHandler+0x468>
 8001592:	f8b0 3050 	ldrh.w	r3, [r0, #80]	; 0x50
 8001596:	f200 4004 	addw	r0, r0, #1028	; 0x404
 800159a:	fa10 f383 	uxtah	r3, r0, r3
 800159e:	eb03 1302 	add.w	r3, r3, r2, lsl #4
 80015a2:	801f      	strh	r7, [r3, #0]
 80015a4:	f895 1028 	ldrb.w	r1, [r5, #40]	; 0x28
 80015a8:	4620      	mov	r0, r4
 80015aa:	f002 fbb8 	bl	8003d1e <HAL_PCD_DataInStageCallback>
 80015ae:	e5d3      	b.n	8001158 <HAL_PCD_IRQHandler+0x1c>
 80015b0:	b923      	cbnz	r3, 80015bc <HAL_PCD_IRQHandler+0x480>
 80015b2:	f8b0 3050 	ldrh.w	r3, [r0, #80]	; 0x50
 80015b6:	f200 400c 	addw	r0, r0, #1036	; 0x40c
 80015ba:	e7c7      	b.n	800154c <HAL_PCD_IRQHandler+0x410>
 80015bc:	2b01      	cmp	r3, #1
 80015be:	d1f1      	bne.n	80015a4 <HAL_PCD_IRQHandler+0x468>
 80015c0:	f8b0 3050 	ldrh.w	r3, [r0, #80]	; 0x50
 80015c4:	f200 400c 	addw	r0, r0, #1036	; 0x40c
 80015c8:	fa10 f383 	uxtah	r3, r0, r3
 80015cc:	eb03 1302 	add.w	r3, r3, r2, lsl #4
 80015d0:	801e      	strh	r6, [r3, #0]
 80015d2:	e7e7      	b.n	80015a4 <HAL_PCD_IRQHandler+0x468>
 80015d4:	fb0c 4e07 	mla	lr, ip, r7, r4
 80015d8:	f895 1028 	ldrb.w	r1, [r5, #40]	; 0x28
 80015dc:	f8de 2040 	ldr.w	r2, [lr, #64]	; 0x40
 80015e0:	9201      	str	r2, [sp, #4]
 80015e2:	f416 7280 	ands.w	r2, r6, #256	; 0x100
 80015e6:	ea4f 0ac1 	mov.w	sl, r1, lsl #3
 80015ea:	f500 6980 	add.w	r9, r0, #1024	; 0x400
 80015ee:	d123      	bne.n	8001638 <HAL_PCD_IRQHandler+0x4fc>
 80015f0:	f8b0 3050 	ldrh.w	r3, [r0, #80]	; 0x50
 80015f4:	fa1a f383 	uxtah	r3, sl, r3
 80015f8:	3302      	adds	r3, #2
 80015fa:	f839 5013 	ldrh.w	r5, [r9, r3, lsl #1]
 80015fe:	9b01      	ldr	r3, [sp, #4]
 8001600:	f3c5 0509 	ubfx	r5, r5, #0, #10
 8001604:	429d      	cmp	r5, r3
 8001606:	d302      	bcc.n	800160e <HAL_PCD_IRQHandler+0x4d2>
 8001608:	f8ce 2040 	str.w	r2, [lr, #64]	; 0x40
 800160c:	e7cc      	b.n	80015a8 <HAL_PCD_IRQHandler+0x46c>
 800160e:	9b01      	ldr	r3, [sp, #4]
 8001610:	1b5a      	subs	r2, r3, r5
 8001612:	f8ce 2040 	str.w	r2, [lr, #64]	; 0x40
 8001616:	f8de 3044 	ldr.w	r3, [lr, #68]	; 0x44
 800161a:	f8de 203c 	ldr.w	r2, [lr, #60]	; 0x3c
 800161e:	442b      	add	r3, r5
 8001620:	442a      	add	r2, r5
 8001622:	fb07 cc0c 	mla	ip, r7, ip, ip
 8001626:	f8ce 203c 	str.w	r2, [lr, #60]	; 0x3c
 800162a:	f8ce 3044 	str.w	r3, [lr, #68]	; 0x44
 800162e:	eb04 010c 	add.w	r1, r4, ip
 8001632:	f001 fa65 	bl	8002b00 <USB_EPStartXfer>
 8001636:	e58f      	b.n	8001158 <HAL_PCD_IRQHandler+0x1c>
 8001638:	f016 0c40 	ands.w	ip, r6, #64	; 0x40
 800163c:	f406 4680 	and.w	r6, r6, #16384	; 0x4000
 8001640:	f000 80e3 	beq.w	800180a <HAL_PCD_IRQHandler+0x6ce>
 8001644:	f8b0 c050 	ldrh.w	ip, [r0, #80]	; 0x50
 8001648:	9a01      	ldr	r2, [sp, #4]
 800164a:	fa1a fc8c 	uxtah	ip, sl, ip
 800164e:	f10c 0c02 	add.w	ip, ip, #2
 8001652:	f04f 0e28 	mov.w	lr, #40	; 0x28
 8001656:	f839 c01c 	ldrh.w	ip, [r9, ip, lsl #1]
 800165a:	f3cc 0c09 	ubfx	ip, ip, #0, #10
 800165e:	4594      	cmp	ip, r2
 8001660:	fb0e 4e07 	mla	lr, lr, r7, r4
 8001664:	bf34      	ite	cc
 8001666:	eba2 020c 	subcc.w	r2, r2, ip
 800166a:	2200      	movcs	r2, #0
 800166c:	f8ce 2040 	str.w	r2, [lr, #64]	; 0x40
 8001670:	b2b6      	uxth	r6, r6
 8001672:	2a00      	cmp	r2, #0
 8001674:	d14c      	bne.n	8001710 <HAL_PCD_IRQHandler+0x5d4>
 8001676:	f895 7029 	ldrb.w	r7, [r5, #41]	; 0x29
 800167a:	2f00      	cmp	r7, #0
 800167c:	d136      	bne.n	80016ec <HAL_PCD_IRQHandler+0x5b0>
 800167e:	f8b0 2050 	ldrh.w	r2, [r0, #80]	; 0x50
 8001682:	f200 4704 	addw	r7, r0, #1028	; 0x404
 8001686:	010b      	lsls	r3, r1, #4
 8001688:	fa17 f282 	uxtah	r2, r7, r2
 800168c:	5ad7      	ldrh	r7, [r2, r3]
 800168e:	f3c7 0709 	ubfx	r7, r7, #0, #10
 8001692:	52d7      	strh	r7, [r2, r3]
 8001694:	5ad7      	ldrh	r7, [r2, r3]
 8001696:	b2bf      	uxth	r7, r7
 8001698:	f447 4700 	orr.w	r7, r7, #32768	; 0x8000
 800169c:	52d7      	strh	r7, [r2, r3]
 800169e:	f8b0 2050 	ldrh.w	r2, [r0, #80]	; 0x50
 80016a2:	f200 400c 	addw	r0, r0, #1036	; 0x40c
 80016a6:	fa10 f082 	uxtah	r0, r0, r2
 80016aa:	5ac2      	ldrh	r2, [r0, r3]
 80016ac:	f3c2 0209 	ubfx	r2, r2, #0, #10
 80016b0:	52c2      	strh	r2, [r0, r3]
 80016b2:	5ac2      	ldrh	r2, [r0, r3]
 80016b4:	b292      	uxth	r2, r2
 80016b6:	f442 4200 	orr.w	r2, r2, #32768	; 0x8000
 80016ba:	52c2      	strh	r2, [r0, r3]
 80016bc:	4620      	mov	r0, r4
 80016be:	f002 fb2e 	bl	8003d1e <HAL_PCD_DataInStageCallback>
 80016c2:	2e00      	cmp	r6, #0
 80016c4:	f000 80e4 	beq.w	8001890 <HAL_PCD_IRQHandler+0x754>
 80016c8:	f895 1028 	ldrb.w	r1, [r5, #40]	; 0x28
 80016cc:	6822      	ldr	r2, [r4, #0]
 80016ce:	f832 3021 	ldrh.w	r3, [r2, r1, lsl #2]
 80016d2:	f423 43e0 	bic.w	r3, r3, #28672	; 0x7000
 80016d6:	f023 0370 	bic.w	r3, r3, #112	; 0x70
 80016da:	041b      	lsls	r3, r3, #16
 80016dc:	0c1b      	lsrs	r3, r3, #16
 80016de:	f443 4340 	orr.w	r3, r3, #49152	; 0xc000
 80016e2:	f043 0380 	orr.w	r3, r3, #128	; 0x80
 80016e6:	f822 3021 	strh.w	r3, [r2, r1, lsl #2]
 80016ea:	e0d1      	b.n	8001890 <HAL_PCD_IRQHandler+0x754>
 80016ec:	2f01      	cmp	r7, #1
 80016ee:	d1e5      	bne.n	80016bc <HAL_PCD_IRQHandler+0x580>
 80016f0:	f8b0 7050 	ldrh.w	r7, [r0, #80]	; 0x50
 80016f4:	f200 4c04 	addw	ip, r0, #1028	; 0x404
 80016f8:	010b      	lsls	r3, r1, #4
 80016fa:	fa1c f787 	uxtah	r7, ip, r7
 80016fe:	52fa      	strh	r2, [r7, r3]
 8001700:	f8b0 7050 	ldrh.w	r7, [r0, #80]	; 0x50
 8001704:	f200 400c 	addw	r0, r0, #1036	; 0x40c
 8001708:	fa10 f787 	uxtah	r7, r0, r7
 800170c:	52fa      	strh	r2, [r7, r3]
 800170e:	e7d5      	b.n	80016bc <HAL_PCD_IRQHandler+0x580>
 8001710:	b16e      	cbz	r6, 800172e <HAL_PCD_IRQHandler+0x5f2>
 8001712:	f830 2021 	ldrh.w	r2, [r0, r1, lsl #2]
 8001716:	f422 42e0 	bic.w	r2, r2, #28672	; 0x7000
 800171a:	f022 0270 	bic.w	r2, r2, #112	; 0x70
 800171e:	0412      	lsls	r2, r2, #16
 8001720:	0c12      	lsrs	r2, r2, #16
 8001722:	f442 4240 	orr.w	r2, r2, #49152	; 0xc000
 8001726:	f042 0280 	orr.w	r2, r2, #128	; 0x80
 800172a:	f820 2021 	strh.w	r2, [r0, r1, lsl #2]
 800172e:	2228      	movs	r2, #40	; 0x28
 8001730:	fb02 4207 	mla	r2, r2, r7, r4
 8001734:	f892 304c 	ldrb.w	r3, [r2, #76]	; 0x4c
 8001738:	2b01      	cmp	r3, #1
 800173a:	f040 80a9 	bne.w	8001890 <HAL_PCD_IRQHandler+0x754>
 800173e:	6bd3      	ldr	r3, [r2, #60]	; 0x3c
 8001740:	f8d2 e048 	ldr.w	lr, [r2, #72]	; 0x48
 8001744:	eb03 060c 	add.w	r6, r3, ip
 8001748:	6c53      	ldr	r3, [r2, #68]	; 0x44
 800174a:	63d6      	str	r6, [r2, #60]	; 0x3c
 800174c:	4463      	add	r3, ip
 800174e:	6453      	str	r3, [r2, #68]	; 0x44
 8001750:	6b93      	ldr	r3, [r2, #56]	; 0x38
 8001752:	459e      	cmp	lr, r3
 8001754:	d32e      	bcc.n	80017b4 <HAL_PCD_IRQHandler+0x678>
 8001756:	ebae 0e03 	sub.w	lr, lr, r3
 800175a:	f8c2 e048 	str.w	lr, [r2, #72]	; 0x48
 800175e:	f895 2029 	ldrb.w	r2, [r5, #41]	; 0x29
 8001762:	fa1f fc83 	uxth.w	ip, r3
 8001766:	2a00      	cmp	r2, #0
 8001768:	d142      	bne.n	80017f0 <HAL_PCD_IRQHandler+0x6b4>
 800176a:	f8b0 2050 	ldrh.w	r2, [r0, #80]	; 0x50
 800176e:	f200 4e04 	addw	lr, r0, #1028	; 0x404
 8001772:	fa1e f282 	uxtah	r2, lr, r2
 8001776:	eb02 1201 	add.w	r2, r2, r1, lsl #4
 800177a:	2b3e      	cmp	r3, #62	; 0x3e
 800177c:	8811      	ldrh	r1, [r2, #0]
 800177e:	f3c1 0109 	ubfx	r1, r1, #0, #10
 8001782:	8011      	strh	r1, [r2, #0]
 8001784:	d923      	bls.n	80017ce <HAL_PCD_IRQHandler+0x692>
 8001786:	06d9      	lsls	r1, r3, #27
 8001788:	8811      	ldrh	r1, [r2, #0]
 800178a:	ea4f 1e53 	mov.w	lr, r3, lsr #5
 800178e:	bf08      	it	eq
 8001790:	f10e 3eff 	addeq.w	lr, lr, #4294967295
 8001794:	b289      	uxth	r1, r1
 8001796:	ea41 218e 	orr.w	r1, r1, lr, lsl #10
 800179a:	ea41 0108 	orr.w	r1, r1, r8
 800179e:	b289      	uxth	r1, r1
 80017a0:	8011      	strh	r1, [r2, #0]
 80017a2:	2228      	movs	r2, #40	; 0x28
 80017a4:	fb02 4207 	mla	r2, r2, r7, r4
 80017a8:	4663      	mov	r3, ip
 80017aa:	8e12      	ldrh	r2, [r2, #48]	; 0x30
 80017ac:	4631      	mov	r1, r6
 80017ae:	f001 f997 	bl	8002ae0 <USB_WritePMA>
 80017b2:	e06d      	b.n	8001890 <HAL_PCD_IRQHandler+0x754>
 80017b4:	f1be 0f00 	cmp.w	lr, #0
 80017b8:	d103      	bne.n	80017c2 <HAL_PCD_IRQHandler+0x686>
 80017ba:	f882 e04c 	strb.w	lr, [r2, #76]	; 0x4c
 80017be:	4663      	mov	r3, ip
 80017c0:	e7cd      	b.n	800175e <HAL_PCD_IRQHandler+0x622>
 80017c2:	2300      	movs	r3, #0
 80017c4:	f882 304c 	strb.w	r3, [r2, #76]	; 0x4c
 80017c8:	6493      	str	r3, [r2, #72]	; 0x48
 80017ca:	4673      	mov	r3, lr
 80017cc:	e7c7      	b.n	800175e <HAL_PCD_IRQHandler+0x622>
 80017ce:	b92b      	cbnz	r3, 80017dc <HAL_PCD_IRQHandler+0x6a0>
 80017d0:	8813      	ldrh	r3, [r2, #0]
 80017d2:	b29b      	uxth	r3, r3
 80017d4:	f443 4300 	orr.w	r3, r3, #32768	; 0x8000
 80017d8:	8013      	strh	r3, [r2, #0]
 80017da:	e7e2      	b.n	80017a2 <HAL_PCD_IRQHandler+0x666>
 80017dc:	0859      	lsrs	r1, r3, #1
 80017de:	07db      	lsls	r3, r3, #31
 80017e0:	8813      	ldrh	r3, [r2, #0]
 80017e2:	bf48      	it	mi
 80017e4:	3101      	addmi	r1, #1
 80017e6:	b29b      	uxth	r3, r3
 80017e8:	ea43 2381 	orr.w	r3, r3, r1, lsl #10
 80017ec:	b29b      	uxth	r3, r3
 80017ee:	e7f3      	b.n	80017d8 <HAL_PCD_IRQHandler+0x69c>
 80017f0:	2a01      	cmp	r2, #1
 80017f2:	d1d6      	bne.n	80017a2 <HAL_PCD_IRQHandler+0x666>
 80017f4:	f8b0 3050 	ldrh.w	r3, [r0, #80]	; 0x50
 80017f8:	f200 4204 	addw	r2, r0, #1028	; 0x404
 80017fc:	fa12 f383 	uxtah	r3, r2, r3
 8001800:	eb03 1301 	add.w	r3, r3, r1, lsl #4
 8001804:	f8a3 c000 	strh.w	ip, [r3]
 8001808:	e7cb      	b.n	80017a2 <HAL_PCD_IRQHandler+0x666>
 800180a:	f8b0 e050 	ldrh.w	lr, [r0, #80]	; 0x50
 800180e:	9a01      	ldr	r2, [sp, #4]
 8001810:	fa1a fe8e 	uxtah	lr, sl, lr
 8001814:	f10e 0e06 	add.w	lr, lr, #6
 8001818:	b2b6      	uxth	r6, r6
 800181a:	f839 e01e 	ldrh.w	lr, [r9, lr, lsl #1]
 800181e:	f3ce 0e09 	ubfx	lr, lr, #0, #10
 8001822:	4596      	cmp	lr, r2
 8001824:	bf88      	it	hi
 8001826:	4662      	movhi	r2, ip
 8001828:	f04f 0c28 	mov.w	ip, #40	; 0x28
 800182c:	fb0c 4c07 	mla	ip, ip, r7, r4
 8001830:	bf98      	it	ls
 8001832:	eba2 020e 	subls.w	r2, r2, lr
 8001836:	f8cc 2040 	str.w	r2, [ip, #64]	; 0x40
 800183a:	2a00      	cmp	r2, #0
 800183c:	d14d      	bne.n	80018da <HAL_PCD_IRQHandler+0x79e>
 800183e:	f895 7029 	ldrb.w	r7, [r5, #41]	; 0x29
 8001842:	2f00      	cmp	r7, #0
 8001844:	d137      	bne.n	80018b6 <HAL_PCD_IRQHandler+0x77a>
 8001846:	f8b0 2050 	ldrh.w	r2, [r0, #80]	; 0x50
 800184a:	f200 4704 	addw	r7, r0, #1028	; 0x404
 800184e:	010b      	lsls	r3, r1, #4
 8001850:	fa17 f282 	uxtah	r2, r7, r2
 8001854:	5ad7      	ldrh	r7, [r2, r3]
 8001856:	f3c7 0709 	ubfx	r7, r7, #0, #10
 800185a:	52d7      	strh	r7, [r2, r3]
 800185c:	5ad7      	ldrh	r7, [r2, r3]
 800185e:	b2bf      	uxth	r7, r7
 8001860:	f447 4700 	orr.w	r7, r7, #32768	; 0x8000
 8001864:	52d7      	strh	r7, [r2, r3]
 8001866:	f8b0 2050 	ldrh.w	r2, [r0, #80]	; 0x50
 800186a:	f200 400c 	addw	r0, r0, #1036	; 0x40c
 800186e:	fa10 f082 	uxtah	r0, r0, r2
 8001872:	5ac2      	ldrh	r2, [r0, r3]
 8001874:	f3c2 0209 	ubfx	r2, r2, #0, #10
 8001878:	52c2      	strh	r2, [r0, r3]
 800187a:	5ac2      	ldrh	r2, [r0, r3]
 800187c:	b292      	uxth	r2, r2
 800187e:	f442 4200 	orr.w	r2, r2, #32768	; 0x8000
 8001882:	52c2      	strh	r2, [r0, r3]
 8001884:	4620      	mov	r0, r4
 8001886:	f002 fa4a 	bl	8003d1e <HAL_PCD_DataInStageCallback>
 800188a:	2e00      	cmp	r6, #0
 800188c:	f43f af1c 	beq.w	80016c8 <HAL_PCD_IRQHandler+0x58c>
 8001890:	f895 1028 	ldrb.w	r1, [r5, #40]	; 0x28
 8001894:	6822      	ldr	r2, [r4, #0]
 8001896:	f832 3021 	ldrh.w	r3, [r2, r1, lsl #2]
 800189a:	b29b      	uxth	r3, r3
 800189c:	f423 43e0 	bic.w	r3, r3, #28672	; 0x7000
 80018a0:	f023 0340 	bic.w	r3, r3, #64	; 0x40
 80018a4:	f083 0330 	eor.w	r3, r3, #48	; 0x30
 80018a8:	f443 4300 	orr.w	r3, r3, #32768	; 0x8000
 80018ac:	f043 0380 	orr.w	r3, r3, #128	; 0x80
 80018b0:	f822 3021 	strh.w	r3, [r2, r1, lsl #2]
 80018b4:	e450      	b.n	8001158 <HAL_PCD_IRQHandler+0x1c>
 80018b6:	2f01      	cmp	r7, #1
 80018b8:	d1e4      	bne.n	8001884 <HAL_PCD_IRQHandler+0x748>
 80018ba:	f8b0 7050 	ldrh.w	r7, [r0, #80]	; 0x50
 80018be:	f200 4c04 	addw	ip, r0, #1028	; 0x404
 80018c2:	010b      	lsls	r3, r1, #4
 80018c4:	fa1c f787 	uxtah	r7, ip, r7
 80018c8:	52fa      	strh	r2, [r7, r3]
 80018ca:	f8b0 7050 	ldrh.w	r7, [r0, #80]	; 0x50
 80018ce:	f200 400c 	addw	r0, r0, #1036	; 0x40c
 80018d2:	fa10 f787 	uxtah	r7, r0, r7
 80018d6:	52fa      	strh	r2, [r7, r3]
 80018d8:	e7d4      	b.n	8001884 <HAL_PCD_IRQHandler+0x748>
 80018da:	b96e      	cbnz	r6, 80018f8 <HAL_PCD_IRQHandler+0x7bc>
 80018dc:	f830 2021 	ldrh.w	r2, [r0, r1, lsl #2]
 80018e0:	f422 42e0 	bic.w	r2, r2, #28672	; 0x7000
 80018e4:	f022 0270 	bic.w	r2, r2, #112	; 0x70
 80018e8:	0412      	lsls	r2, r2, #16
 80018ea:	0c12      	lsrs	r2, r2, #16
 80018ec:	f442 4240 	orr.w	r2, r2, #49152	; 0xc000
 80018f0:	f042 0280 	orr.w	r2, r2, #128	; 0x80
 80018f4:	f820 2021 	strh.w	r2, [r0, r1, lsl #2]
 80018f8:	2228      	movs	r2, #40	; 0x28
 80018fa:	fb02 4207 	mla	r2, r2, r7, r4
 80018fe:	f892 304c 	ldrb.w	r3, [r2, #76]	; 0x4c
 8001902:	2b01      	cmp	r3, #1
 8001904:	d1c4      	bne.n	8001890 <HAL_PCD_IRQHandler+0x754>
 8001906:	6c53      	ldr	r3, [r2, #68]	; 0x44
 8001908:	6bd6      	ldr	r6, [r2, #60]	; 0x3c
 800190a:	f8d2 c048 	ldr.w	ip, [r2, #72]	; 0x48
 800190e:	4473      	add	r3, lr
 8001910:	6453      	str	r3, [r2, #68]	; 0x44
 8001912:	6b93      	ldr	r3, [r2, #56]	; 0x38
 8001914:	4476      	add	r6, lr
 8001916:	459c      	cmp	ip, r3
 8001918:	63d6      	str	r6, [r2, #60]	; 0x3c
 800191a:	d32b      	bcc.n	8001974 <HAL_PCD_IRQHandler+0x838>
 800191c:	ebac 0c03 	sub.w	ip, ip, r3
 8001920:	f8c2 c048 	str.w	ip, [r2, #72]	; 0x48
 8001924:	f895 2029 	ldrb.w	r2, [r5, #41]	; 0x29
 8001928:	fa1f fc83 	uxth.w	ip, r3
 800192c:	2a00      	cmp	r2, #0
 800192e:	d13f      	bne.n	80019b0 <HAL_PCD_IRQHandler+0x874>
 8001930:	f8b0 2050 	ldrh.w	r2, [r0, #80]	; 0x50
 8001934:	f200 4e0c 	addw	lr, r0, #1036	; 0x40c
 8001938:	fa1e f282 	uxtah	r2, lr, r2
 800193c:	eb02 1201 	add.w	r2, r2, r1, lsl #4
 8001940:	2b3e      	cmp	r3, #62	; 0x3e
 8001942:	8811      	ldrh	r1, [r2, #0]
 8001944:	f3c1 0109 	ubfx	r1, r1, #0, #10
 8001948:	8011      	strh	r1, [r2, #0]
 800194a:	d920      	bls.n	800198e <HAL_PCD_IRQHandler+0x852>
 800194c:	06d9      	lsls	r1, r3, #27
 800194e:	8811      	ldrh	r1, [r2, #0]
 8001950:	ea4f 1e53 	mov.w	lr, r3, lsr #5
 8001954:	bf08      	it	eq
 8001956:	f10e 3eff 	addeq.w	lr, lr, #4294967295
 800195a:	b289      	uxth	r1, r1
 800195c:	ea41 218e 	orr.w	r1, r1, lr, lsl #10
 8001960:	ea41 0108 	orr.w	r1, r1, r8
 8001964:	b289      	uxth	r1, r1
 8001966:	8011      	strh	r1, [r2, #0]
 8001968:	2328      	movs	r3, #40	; 0x28
 800196a:	fb03 4707 	mla	r7, r3, r7, r4
 800196e:	4663      	mov	r3, ip
 8001970:	8e7a      	ldrh	r2, [r7, #50]	; 0x32
 8001972:	e71b      	b.n	80017ac <HAL_PCD_IRQHandler+0x670>
 8001974:	f1bc 0f00 	cmp.w	ip, #0
 8001978:	d103      	bne.n	8001982 <HAL_PCD_IRQHandler+0x846>
 800197a:	f882 c04c 	strb.w	ip, [r2, #76]	; 0x4c
 800197e:	4673      	mov	r3, lr
 8001980:	e7d0      	b.n	8001924 <HAL_PCD_IRQHandler+0x7e8>
 8001982:	2300      	movs	r3, #0
 8001984:	6493      	str	r3, [r2, #72]	; 0x48
 8001986:	f882 304c 	strb.w	r3, [r2, #76]	; 0x4c
 800198a:	4663      	mov	r3, ip
 800198c:	e7ca      	b.n	8001924 <HAL_PCD_IRQHandler+0x7e8>
 800198e:	b92b      	cbnz	r3, 800199c <HAL_PCD_IRQHandler+0x860>
 8001990:	8813      	ldrh	r3, [r2, #0]
 8001992:	b29b      	uxth	r3, r3
 8001994:	f443 4300 	orr.w	r3, r3, #32768	; 0x8000
 8001998:	8013      	strh	r3, [r2, #0]
 800199a:	e7e5      	b.n	8001968 <HAL_PCD_IRQHandler+0x82c>
 800199c:	0859      	lsrs	r1, r3, #1
 800199e:	07db      	lsls	r3, r3, #31
 80019a0:	8813      	ldrh	r3, [r2, #0]
 80019a2:	bf48      	it	mi
 80019a4:	3101      	addmi	r1, #1
 80019a6:	b29b      	uxth	r3, r3
 80019a8:	ea43 2381 	orr.w	r3, r3, r1, lsl #10
 80019ac:	b29b      	uxth	r3, r3
 80019ae:	e7f3      	b.n	8001998 <HAL_PCD_IRQHandler+0x85c>
 80019b0:	2a01      	cmp	r2, #1
 80019b2:	d1d9      	bne.n	8001968 <HAL_PCD_IRQHandler+0x82c>
 80019b4:	f8b0 3050 	ldrh.w	r3, [r0, #80]	; 0x50
 80019b8:	f200 420c 	addw	r2, r0, #1036	; 0x40c
 80019bc:	fa12 f383 	uxtah	r3, r2, r3
 80019c0:	eb03 1301 	add.w	r3, r3, r1, lsl #4
 80019c4:	f8a3 c000 	strh.w	ip, [r3]
 80019c8:	e7ce      	b.n	8001968 <HAL_PCD_IRQHandler+0x82c>
 80019ca:	0543      	lsls	r3, r0, #21
 80019cc:	d513      	bpl.n	80019f6 <HAL_PCD_IRQHandler+0x8ba>
 80019ce:	6822      	ldr	r2, [r4, #0]
 80019d0:	9101      	str	r1, [sp, #4]
 80019d2:	f8b2 3044 	ldrh.w	r3, [r2, #68]	; 0x44
 80019d6:	f423 6380 	bic.w	r3, r3, #1024	; 0x400
 80019da:	041b      	lsls	r3, r3, #16
 80019dc:	0c1b      	lsrs	r3, r3, #16
 80019de:	4620      	mov	r0, r4
 80019e0:	f8a2 3044 	strh.w	r3, [r2, #68]	; 0x44
 80019e4:	f002 f9a7 	bl	8003d36 <HAL_PCD_ResetCallback>
 80019e8:	9901      	ldr	r1, [sp, #4]
 80019ea:	4620      	mov	r0, r4
 80019ec:	b003      	add	sp, #12
 80019ee:	e8bd 4ff0 	ldmia.w	sp!, {r4, r5, r6, r7, r8, r9, sl, fp, lr}
 80019f2:	f7ff bb8f 	b.w	8001114 <HAL_PCD_SetAddress>
 80019f6:	0447      	lsls	r7, r0, #17
 80019f8:	d50a      	bpl.n	8001a10 <HAL_PCD_IRQHandler+0x8d4>
 80019fa:	6822      	ldr	r2, [r4, #0]
 80019fc:	f8b2 3044 	ldrh.w	r3, [r2, #68]	; 0x44
 8001a00:	f423 4380 	bic.w	r3, r3, #16384	; 0x4000
 8001a04:	041b      	lsls	r3, r3, #16
 8001a06:	0c1b      	lsrs	r3, r3, #16
 8001a08:	f8a2 3044 	strh.w	r3, [r2, #68]	; 0x44
 8001a0c:	f7ff bba9 	b.w	8001162 <HAL_PCD_IRQHandler+0x26>
 8001a10:	0486      	lsls	r6, r0, #18
 8001a12:	d505      	bpl.n	8001a20 <HAL_PCD_IRQHandler+0x8e4>
 8001a14:	6822      	ldr	r2, [r4, #0]
 8001a16:	f8b2 3044 	ldrh.w	r3, [r2, #68]	; 0x44
 8001a1a:	f423 5300 	bic.w	r3, r3, #8192	; 0x2000
 8001a1e:	e7f1      	b.n	8001a04 <HAL_PCD_IRQHandler+0x8c8>
 8001a20:	04c5      	lsls	r5, r0, #19
 8001a22:	d519      	bpl.n	8001a58 <HAL_PCD_IRQHandler+0x91c>
 8001a24:	6822      	ldr	r2, [r4, #0]
 8001a26:	f8b2 3040 	ldrh.w	r3, [r2, #64]	; 0x40
 8001a2a:	f023 0304 	bic.w	r3, r3, #4
 8001a2e:	041b      	lsls	r3, r3, #16
 8001a30:	0c1b      	lsrs	r3, r3, #16
 8001a32:	f8a2 3040 	strh.w	r3, [r2, #64]	; 0x40
 8001a36:	f8b2 3040 	ldrh.w	r3, [r2, #64]	; 0x40
 8001a3a:	f023 0308 	bic.w	r3, r3, #8
 8001a3e:	041b      	lsls	r3, r3, #16
 8001a40:	0c1b      	lsrs	r3, r3, #16
 8001a42:	f8a2 3040 	strh.w	r3, [r2, #64]	; 0x40
 8001a46:	4620      	mov	r0, r4
 8001a48:	f002 f998 	bl	8003d7c <HAL_PCD_ResumeCallback>
 8001a4c:	6822      	ldr	r2, [r4, #0]
 8001a4e:	f8b2 3044 	ldrh.w	r3, [r2, #68]	; 0x44
 8001a52:	f423 5380 	bic.w	r3, r3, #4096	; 0x1000
 8001a56:	e7d5      	b.n	8001a04 <HAL_PCD_IRQHandler+0x8c8>
 8001a58:	0501      	lsls	r1, r0, #20
 8001a5a:	d51b      	bpl.n	8001a94 <HAL_PCD_IRQHandler+0x958>
 8001a5c:	6822      	ldr	r2, [r4, #0]
 8001a5e:	f8b2 3040 	ldrh.w	r3, [r2, #64]	; 0x40
 8001a62:	b29b      	uxth	r3, r3
 8001a64:	f043 0308 	orr.w	r3, r3, #8
 8001a68:	f8a2 3040 	strh.w	r3, [r2, #64]	; 0x40
 8001a6c:	f8b2 3044 	ldrh.w	r3, [r2, #68]	; 0x44
 8001a70:	f423 6300 	bic.w	r3, r3, #2048	; 0x800
 8001a74:	041b      	lsls	r3, r3, #16
 8001a76:	0c1b      	lsrs	r3, r3, #16
 8001a78:	f8a2 3044 	strh.w	r3, [r2, #68]	; 0x44
 8001a7c:	f8b2 3040 	ldrh.w	r3, [r2, #64]	; 0x40
 8001a80:	b29b      	uxth	r3, r3
 8001a82:	f043 0304 	orr.w	r3, r3, #4
 8001a86:	f8a2 3040 	strh.w	r3, [r2, #64]	; 0x40
 8001a8a:	4620      	mov	r0, r4
 8001a8c:	f002 f966 	bl	8003d5c <HAL_PCD_SuspendCallback>
 8001a90:	f7ff bb67 	b.w	8001162 <HAL_PCD_IRQHandler+0x26>
 8001a94:	0582      	lsls	r2, r0, #22
 8001a96:	d50d      	bpl.n	8001ab4 <HAL_PCD_IRQHandler+0x978>
 8001a98:	6822      	ldr	r2, [r4, #0]
 8001a9a:	f8b2 3044 	ldrh.w	r3, [r2, #68]	; 0x44
 8001a9e:	f423 7300 	bic.w	r3, r3, #512	; 0x200
 8001aa2:	041b      	lsls	r3, r3, #16
 8001aa4:	0c1b      	lsrs	r3, r3, #16
 8001aa6:	f8a2 3044 	strh.w	r3, [r2, #68]	; 0x44
 8001aaa:	4620      	mov	r0, r4
 8001aac:	f002 f93f 	bl	8003d2e <HAL_PCD_SOFCallback>
 8001ab0:	f7ff bb57 	b.w	8001162 <HAL_PCD_IRQHandler+0x26>
 8001ab4:	05c3      	lsls	r3, r0, #23
 8001ab6:	f57f ab54 	bpl.w	8001162 <HAL_PCD_IRQHandler+0x26>
 8001aba:	6822      	ldr	r2, [r4, #0]
 8001abc:	f8b2 3044 	ldrh.w	r3, [r2, #68]	; 0x44
 8001ac0:	f423 7380 	bic.w	r3, r3, #256	; 0x100
 8001ac4:	e79e      	b.n	8001a04 <HAL_PCD_IRQHandler+0x8c8>
 8001ac6:	bf00      	nop
 8001ac8:	ffff8f0f 	.word	0xffff8f0f
 8001acc:	ffff8000 	.word	0xffff8000

08001ad0 <HAL_PCD_EP_Open>:
 8001ad0:	f011 0f80 	tst.w	r1, #128	; 0x80
 8001ad4:	b570      	push	{r4, r5, r6, lr}
 8001ad6:	4604      	mov	r4, r0
 8001ad8:	f001 0507 	and.w	r5, r1, #7
 8001adc:	f04f 0028 	mov.w	r0, #40	; 0x28
 8001ae0:	d019      	beq.n	8001b16 <HAL_PCD_EP_Open+0x46>
 8001ae2:	fb05 0000 	mla	r0, r5, r0, r0
 8001ae6:	1821      	adds	r1, r4, r0
 8001ae8:	2001      	movs	r0, #1
 8001aea:	7048      	strb	r0, [r1, #1]
 8001aec:	2b02      	cmp	r3, #2
 8001aee:	70cb      	strb	r3, [r1, #3]
 8001af0:	bf04      	itt	eq
 8001af2:	2300      	moveq	r3, #0
 8001af4:	710b      	strbeq	r3, [r1, #4]
 8001af6:	700d      	strb	r5, [r1, #0]
 8001af8:	610a      	str	r2, [r1, #16]
 8001afa:	f894 32a8 	ldrb.w	r3, [r4, #680]	; 0x2a8
 8001afe:	2b01      	cmp	r3, #1
 8001b00:	d013      	beq.n	8001b2a <HAL_PCD_EP_Open+0x5a>
 8001b02:	2301      	movs	r3, #1
 8001b04:	6820      	ldr	r0, [r4, #0]
 8001b06:	f884 32a8 	strb.w	r3, [r4, #680]	; 0x2a8
 8001b0a:	f000 fd3d 	bl	8002588 <USB_ActivateEndpoint>
 8001b0e:	2000      	movs	r0, #0
 8001b10:	f884 02a8 	strb.w	r0, [r4, #680]	; 0x2a8
 8001b14:	bd70      	pop	{r4, r5, r6, pc}
 8001b16:	fb00 4105 	mla	r1, r0, r5, r4
 8001b1a:	fb00 4005 	mla	r0, r0, r5, r4
 8001b1e:	2600      	movs	r6, #0
 8001b20:	f501 71b4 	add.w	r1, r1, #360	; 0x168
 8001b24:	f880 6169 	strb.w	r6, [r0, #361]	; 0x169
 8001b28:	e7e0      	b.n	8001aec <HAL_PCD_EP_Open+0x1c>
 8001b2a:	2002      	movs	r0, #2
 8001b2c:	e7f2      	b.n	8001b14 <HAL_PCD_EP_Open+0x44>

08001b2e <HAL_PCD_EP_Close>:
 8001b2e:	f011 0f80 	tst.w	r1, #128	; 0x80
 8001b32:	b510      	push	{r4, lr}
 8001b34:	f001 0207 	and.w	r2, r1, #7
 8001b38:	4604      	mov	r4, r0
 8001b3a:	f04f 0328 	mov.w	r3, #40	; 0x28
 8001b3e:	d013      	beq.n	8001b68 <HAL_PCD_EP_Close+0x3a>
 8001b40:	fb02 3303 	mla	r3, r2, r3, r3
 8001b44:	18c1      	adds	r1, r0, r3
 8001b46:	2301      	movs	r3, #1
 8001b48:	704b      	strb	r3, [r1, #1]
 8001b4a:	700a      	strb	r2, [r1, #0]
 8001b4c:	f894 32a8 	ldrb.w	r3, [r4, #680]	; 0x2a8
 8001b50:	2b01      	cmp	r3, #1
 8001b52:	d013      	beq.n	8001b7c <HAL_PCD_EP_Close+0x4e>
 8001b54:	2301      	movs	r3, #1
 8001b56:	6820      	ldr	r0, [r4, #0]
 8001b58:	f884 32a8 	strb.w	r3, [r4, #680]	; 0x2a8
 8001b5c:	f000 fe78 	bl	8002850 <USB_DeactivateEndpoint>
 8001b60:	2000      	movs	r0, #0
 8001b62:	f884 02a8 	strb.w	r0, [r4, #680]	; 0x2a8
 8001b66:	bd10      	pop	{r4, pc}
 8001b68:	fb03 0102 	mla	r1, r3, r2, r0
 8001b6c:	fb03 0302 	mla	r3, r3, r2, r0
 8001b70:	2000      	movs	r0, #0
 8001b72:	f501 71b4 	add.w	r1, r1, #360	; 0x168
 8001b76:	f883 0169 	strb.w	r0, [r3, #361]	; 0x169
 8001b7a:	e7e6      	b.n	8001b4a <HAL_PCD_EP_Close+0x1c>
 8001b7c:	2002      	movs	r0, #2
 8001b7e:	e7f2      	b.n	8001b66 <HAL_PCD_EP_Close+0x38>

08001b80 <HAL_PCD_EP_Receive>:
 8001b80:	b570      	push	{r4, r5, r6, lr}
 8001b82:	f001 0107 	and.w	r1, r1, #7
 8001b86:	2628      	movs	r6, #40	; 0x28
 8001b88:	fb06 0401 	mla	r4, r6, r1, r0
 8001b8c:	2500      	movs	r5, #0
 8001b8e:	f884 1168 	strb.w	r1, [r4, #360]	; 0x168
 8001b92:	e9c4 235f 	strd	r2, r3, [r4, #380]	; 0x17c
 8001b96:	f8c4 5184 	str.w	r5, [r4, #388]	; 0x184
 8001b9a:	f884 5169 	strb.w	r5, [r4, #361]	; 0x169
 8001b9e:	f504 71b4 	add.w	r1, r4, #360	; 0x168
 8001ba2:	6800      	ldr	r0, [r0, #0]
 8001ba4:	f000 ffac 	bl	8002b00 <USB_EPStartXfer>
 8001ba8:	4628      	mov	r0, r5
 8001baa:	bd70      	pop	{r4, r5, r6, pc}

08001bac <HAL_PCD_EP_GetRxCount>:
 8001bac:	f001 0107 	and.w	r1, r1, #7
 8001bb0:	2328      	movs	r3, #40	; 0x28
 8001bb2:	fb03 0001 	mla	r0, r3, r1, r0
 8001bb6:	f8d0 0184 	ldr.w	r0, [r0, #388]	; 0x184
 8001bba:	4770      	bx	lr

08001bbc <HAL_PCD_EP_Transmit>:
 8001bbc:	b570      	push	{r4, r5, r6, lr}
 8001bbe:	f001 0107 	and.w	r1, r1, #7
 8001bc2:	2428      	movs	r4, #40	; 0x28
 8001bc4:	fb04 0501 	mla	r5, r4, r1, r0
 8001bc8:	e9c5 230f 	strd	r2, r3, [r5, #60]	; 0x3c
 8001bcc:	64ab      	str	r3, [r5, #72]	; 0x48
 8001bce:	eb01 0381 	add.w	r3, r1, r1, lsl #2
 8001bd2:	eb00 03c3 	add.w	r3, r0, r3, lsl #3
 8001bd6:	2201      	movs	r2, #1
 8001bd8:	2600      	movs	r6, #0
 8001bda:	fb01 4404 	mla	r4, r1, r4, r4
 8001bde:	f885 204c 	strb.w	r2, [r5, #76]	; 0x4c
 8001be2:	646e      	str	r6, [r5, #68]	; 0x44
 8001be4:	f883 1028 	strb.w	r1, [r3, #40]	; 0x28
 8001be8:	f883 2029 	strb.w	r2, [r3, #41]	; 0x29
 8001bec:	1901      	adds	r1, r0, r4
 8001bee:	6800      	ldr	r0, [r0, #0]
 8001bf0:	f000 ff86 	bl	8002b00 <USB_EPStartXfer>
 8001bf4:	4630      	mov	r0, r6
 8001bf6:	bd70      	pop	{r4, r5, r6, pc}

08001bf8 <HAL_PCD_EP_SetStall>:
 8001bf8:	b510      	push	{r4, lr}
 8001bfa:	4604      	mov	r4, r0
 8001bfc:	f001 0007 	and.w	r0, r1, #7
 8001c00:	6863      	ldr	r3, [r4, #4]
 8001c02:	4298      	cmp	r0, r3
 8001c04:	d824      	bhi.n	8001c50 <HAL_PCD_EP_SetStall+0x58>
 8001c06:	f011 0f80 	tst.w	r1, #128	; 0x80
 8001c0a:	f04f 0328 	mov.w	r3, #40	; 0x28
 8001c0e:	d015      	beq.n	8001c3c <HAL_PCD_EP_SetStall+0x44>
 8001c10:	fb00 3303 	mla	r3, r0, r3, r3
 8001c14:	18e2      	adds	r2, r4, r3
 8001c16:	2301      	movs	r3, #1
 8001c18:	7053      	strb	r3, [r2, #1]
 8001c1a:	2301      	movs	r3, #1
 8001c1c:	7093      	strb	r3, [r2, #2]
 8001c1e:	7010      	strb	r0, [r2, #0]
 8001c20:	f894 12a8 	ldrb.w	r1, [r4, #680]	; 0x2a8
 8001c24:	4299      	cmp	r1, r3
 8001c26:	d015      	beq.n	8001c54 <HAL_PCD_EP_SetStall+0x5c>
 8001c28:	6820      	ldr	r0, [r4, #0]
 8001c2a:	f884 32a8 	strb.w	r3, [r4, #680]	; 0x2a8
 8001c2e:	4611      	mov	r1, r2
 8001c30:	f000 fee1 	bl	80029f6 <USB_EPSetStall>
 8001c34:	2000      	movs	r0, #0
 8001c36:	f884 02a8 	strb.w	r0, [r4, #680]	; 0x2a8
 8001c3a:	bd10      	pop	{r4, pc}
 8001c3c:	fb03 4201 	mla	r2, r3, r1, r4
 8001c40:	fb03 4301 	mla	r3, r3, r1, r4
 8001c44:	2100      	movs	r1, #0
 8001c46:	f502 72b4 	add.w	r2, r2, #360	; 0x168
 8001c4a:	f883 1169 	strb.w	r1, [r3, #361]	; 0x169
 8001c4e:	e7e4      	b.n	8001c1a <HAL_PCD_EP_SetStall+0x22>
 8001c50:	2001      	movs	r0, #1
 8001c52:	e7f2      	b.n	8001c3a <HAL_PCD_EP_SetStall+0x42>
 8001c54:	2002      	movs	r0, #2
 8001c56:	e7f0      	b.n	8001c3a <HAL_PCD_EP_SetStall+0x42>

08001c58 <HAL_PCD_EP_ClrStall>:
 8001c58:	b538      	push	{r3, r4, r5, lr}
 8001c5a:	6843      	ldr	r3, [r0, #4]
 8001c5c:	f001 020f 	and.w	r2, r1, #15
 8001c60:	429a      	cmp	r2, r3
 8001c62:	4604      	mov	r4, r0
 8001c64:	d826      	bhi.n	8001cb4 <HAL_PCD_EP_ClrStall+0x5c>
 8001c66:	f011 0f80 	tst.w	r1, #128	; 0x80
 8001c6a:	f001 0207 	and.w	r2, r1, #7
 8001c6e:	f04f 0328 	mov.w	r3, #40	; 0x28
 8001c72:	d015      	beq.n	8001ca0 <HAL_PCD_EP_ClrStall+0x48>
 8001c74:	fb02 3303 	mla	r3, r2, r3, r3
 8001c78:	18c1      	adds	r1, r0, r3
 8001c7a:	2301      	movs	r3, #1
 8001c7c:	704b      	strb	r3, [r1, #1]
 8001c7e:	2500      	movs	r5, #0
 8001c80:	708d      	strb	r5, [r1, #2]
 8001c82:	700a      	strb	r2, [r1, #0]
 8001c84:	f894 32a8 	ldrb.w	r3, [r4, #680]	; 0x2a8
 8001c88:	2b01      	cmp	r3, #1
 8001c8a:	d015      	beq.n	8001cb8 <HAL_PCD_EP_ClrStall+0x60>
 8001c8c:	2301      	movs	r3, #1
 8001c8e:	6820      	ldr	r0, [r4, #0]
 8001c90:	f884 32a8 	strb.w	r3, [r4, #680]	; 0x2a8
 8001c94:	f000 fecf 	bl	8002a36 <USB_EPClearStall>
 8001c98:	f884 52a8 	strb.w	r5, [r4, #680]	; 0x2a8
 8001c9c:	4628      	mov	r0, r5
 8001c9e:	bd38      	pop	{r3, r4, r5, pc}
 8001ca0:	fb03 0102 	mla	r1, r3, r2, r0
 8001ca4:	fb03 0302 	mla	r3, r3, r2, r0
 8001ca8:	2000      	movs	r0, #0
 8001caa:	f501 71b4 	add.w	r1, r1, #360	; 0x168
 8001cae:	f883 0169 	strb.w	r0, [r3, #361]	; 0x169
 8001cb2:	e7e4      	b.n	8001c7e <HAL_PCD_EP_ClrStall+0x26>
 8001cb4:	2001      	movs	r0, #1
 8001cb6:	e7f2      	b.n	8001c9e <HAL_PCD_EP_ClrStall+0x46>
 8001cb8:	2002      	movs	r0, #2
 8001cba:	e7f0      	b.n	8001c9e <HAL_PCD_EP_ClrStall+0x46>

08001cbc <HAL_PCDEx_PMAConfig>:
 8001cbc:	f011 0f80 	tst.w	r1, #128	; 0x80
 8001cc0:	bf18      	it	ne
 8001cc2:	f001 0107 	andne.w	r1, r1, #7
 8001cc6:	b510      	push	{r4, lr}
 8001cc8:	f04f 0428 	mov.w	r4, #40	; 0x28
 8001ccc:	bf15      	itete	ne
 8001cce:	fb01 4404 	mlane	r4, r1, r4, r4
 8001cd2:	fb04 0001 	mlaeq	r0, r4, r1, r0
 8001cd6:	1900      	addne	r0, r0, r4
 8001cd8:	f500 70b4 	addeq.w	r0, r0, #360	; 0x168
 8001cdc:	b299      	uxth	r1, r3
 8001cde:	b91a      	cbnz	r2, 8001ce8 <HAL_PCDEx_PMAConfig+0x2c>
 8001ce0:	7302      	strb	r2, [r0, #12]
 8001ce2:	80c1      	strh	r1, [r0, #6]
 8001ce4:	2000      	movs	r0, #0
 8001ce6:	bd10      	pop	{r4, pc}
 8001ce8:	2201      	movs	r2, #1
 8001cea:	7302      	strb	r2, [r0, #12]
 8001cec:	6083      	str	r3, [r0, #8]
 8001cee:	e7f9      	b.n	8001ce4 <HAL_PCDEx_PMAConfig+0x28>

08001cf0 <HAL_RCC_OscConfig>:
 8001cf0:	e92d 47f3 	stmdb	sp!, {r0, r1, r4, r5, r6, r7, r8, r9, sl, lr}
 8001cf4:	4605      	mov	r5, r0
 8001cf6:	2800      	cmp	r0, #0
 8001cf8:	d033      	beq.n	8001d62 <HAL_RCC_OscConfig+0x72>
 8001cfa:	6803      	ldr	r3, [r0, #0]
 8001cfc:	07da      	lsls	r2, r3, #31
 8001cfe:	d411      	bmi.n	8001d24 <HAL_RCC_OscConfig+0x34>
 8001d00:	682b      	ldr	r3, [r5, #0]
 8001d02:	079b      	lsls	r3, r3, #30
 8001d04:	f100 8081 	bmi.w	8001e0a <HAL_RCC_OscConfig+0x11a>
 8001d08:	682b      	ldr	r3, [r5, #0]
 8001d0a:	071c      	lsls	r4, r3, #28
 8001d0c:	f100 80eb 	bmi.w	8001ee6 <HAL_RCC_OscConfig+0x1f6>
 8001d10:	682b      	ldr	r3, [r5, #0]
 8001d12:	0758      	lsls	r0, r3, #29
 8001d14:	f100 8130 	bmi.w	8001f78 <HAL_RCC_OscConfig+0x288>
 8001d18:	69e8      	ldr	r0, [r5, #28]
 8001d1a:	2800      	cmp	r0, #0
 8001d1c:	f040 81b5 	bne.w	800208a <HAL_RCC_OscConfig+0x39a>
 8001d20:	2000      	movs	r0, #0
 8001d22:	e047      	b.n	8001db4 <HAL_RCC_OscConfig+0xc4>
 8001d24:	4cb0      	ldr	r4, [pc, #704]	; (8001fe8 <HAL_RCC_OscConfig+0x2f8>)
 8001d26:	6863      	ldr	r3, [r4, #4]
 8001d28:	f003 030c 	and.w	r3, r3, #12
 8001d2c:	2b04      	cmp	r3, #4
 8001d2e:	d007      	beq.n	8001d40 <HAL_RCC_OscConfig+0x50>
 8001d30:	6863      	ldr	r3, [r4, #4]
 8001d32:	f003 030c 	and.w	r3, r3, #12
 8001d36:	2b08      	cmp	r3, #8
 8001d38:	d115      	bne.n	8001d66 <HAL_RCC_OscConfig+0x76>
 8001d3a:	6863      	ldr	r3, [r4, #4]
 8001d3c:	03df      	lsls	r7, r3, #15
 8001d3e:	d512      	bpl.n	8001d66 <HAL_RCC_OscConfig+0x76>
 8001d40:	f44f 3300 	mov.w	r3, #131072	; 0x20000
 8001d44:	fa93 f2a3 	rbit	r2, r3
 8001d48:	6821      	ldr	r1, [r4, #0]
 8001d4a:	fa93 f3a3 	rbit	r3, r3
 8001d4e:	2201      	movs	r2, #1
 8001d50:	fab3 f383 	clz	r3, r3
 8001d54:	fa02 f303 	lsl.w	r3, r2, r3
 8001d58:	420b      	tst	r3, r1
 8001d5a:	d0d1      	beq.n	8001d00 <HAL_RCC_OscConfig+0x10>
 8001d5c:	686b      	ldr	r3, [r5, #4]
 8001d5e:	2b00      	cmp	r3, #0
 8001d60:	d1ce      	bne.n	8001d00 <HAL_RCC_OscConfig+0x10>
 8001d62:	2001      	movs	r0, #1
 8001d64:	e026      	b.n	8001db4 <HAL_RCC_OscConfig+0xc4>
 8001d66:	686a      	ldr	r2, [r5, #4]
 8001d68:	f5b2 3f80 	cmp.w	r2, #65536	; 0x10000
 8001d6c:	d125      	bne.n	8001dba <HAL_RCC_OscConfig+0xca>
 8001d6e:	6823      	ldr	r3, [r4, #0]
 8001d70:	f443 3380 	orr.w	r3, r3, #65536	; 0x10000
 8001d74:	6023      	str	r3, [r4, #0]
 8001d76:	6ae3      	ldr	r3, [r4, #44]	; 0x2c
 8001d78:	68a9      	ldr	r1, [r5, #8]
 8001d7a:	f023 030f 	bic.w	r3, r3, #15
 8001d7e:	430b      	orrs	r3, r1
 8001d80:	62e3      	str	r3, [r4, #44]	; 0x2c
 8001d82:	b352      	cbz	r2, 8001dda <HAL_RCC_OscConfig+0xea>
 8001d84:	f7fe fd02 	bl	800078c <HAL_GetTick>
 8001d88:	f44f 3700 	mov.w	r7, #131072	; 0x20000
 8001d8c:	4606      	mov	r6, r0
 8001d8e:	f04f 0801 	mov.w	r8, #1
 8001d92:	fa97 f3a7 	rbit	r3, r7
 8001d96:	6822      	ldr	r2, [r4, #0]
 8001d98:	fa97 f3a7 	rbit	r3, r7
 8001d9c:	fab3 f383 	clz	r3, r3
 8001da0:	fa08 f303 	lsl.w	r3, r8, r3
 8001da4:	4213      	tst	r3, r2
 8001da6:	d1ab      	bne.n	8001d00 <HAL_RCC_OscConfig+0x10>
 8001da8:	f7fe fcf0 	bl	800078c <HAL_GetTick>
 8001dac:	1b80      	subs	r0, r0, r6
 8001dae:	2864      	cmp	r0, #100	; 0x64
 8001db0:	d9ef      	bls.n	8001d92 <HAL_RCC_OscConfig+0xa2>
 8001db2:	2003      	movs	r0, #3
 8001db4:	b002      	add	sp, #8
 8001db6:	e8bd 87f0 	ldmia.w	sp!, {r4, r5, r6, r7, r8, r9, sl, pc}
 8001dba:	6823      	ldr	r3, [r4, #0]
 8001dbc:	b932      	cbnz	r2, 8001dcc <HAL_RCC_OscConfig+0xdc>
 8001dbe:	f423 3380 	bic.w	r3, r3, #65536	; 0x10000
 8001dc2:	6023      	str	r3, [r4, #0]
 8001dc4:	6823      	ldr	r3, [r4, #0]
 8001dc6:	f423 2380 	bic.w	r3, r3, #262144	; 0x40000
 8001dca:	e7d3      	b.n	8001d74 <HAL_RCC_OscConfig+0x84>
 8001dcc:	f5b2 2fa0 	cmp.w	r2, #327680	; 0x50000
 8001dd0:	d1f5      	bne.n	8001dbe <HAL_RCC_OscConfig+0xce>
 8001dd2:	f443 2380 	orr.w	r3, r3, #262144	; 0x40000
 8001dd6:	6023      	str	r3, [r4, #0]
 8001dd8:	e7c9      	b.n	8001d6e <HAL_RCC_OscConfig+0x7e>
 8001dda:	f7fe fcd7 	bl	800078c <HAL_GetTick>
 8001dde:	f44f 3700 	mov.w	r7, #131072	; 0x20000
 8001de2:	4606      	mov	r6, r0
 8001de4:	f04f 0801 	mov.w	r8, #1
 8001de8:	fa97 f3a7 	rbit	r3, r7
 8001dec:	6822      	ldr	r2, [r4, #0]
 8001dee:	fa97 f3a7 	rbit	r3, r7
 8001df2:	fab3 f383 	clz	r3, r3
 8001df6:	fa08 f303 	lsl.w	r3, r8, r3
 8001dfa:	4213      	tst	r3, r2
 8001dfc:	d080      	beq.n	8001d00 <HAL_RCC_OscConfig+0x10>
 8001dfe:	f7fe fcc5 	bl	800078c <HAL_GetTick>
 8001e02:	1b80      	subs	r0, r0, r6
 8001e04:	2864      	cmp	r0, #100	; 0x64
 8001e06:	d9ef      	bls.n	8001de8 <HAL_RCC_OscConfig+0xf8>
 8001e08:	e7d3      	b.n	8001db2 <HAL_RCC_OscConfig+0xc2>
 8001e0a:	4c77      	ldr	r4, [pc, #476]	; (8001fe8 <HAL_RCC_OscConfig+0x2f8>)
 8001e0c:	6863      	ldr	r3, [r4, #4]
 8001e0e:	f013 0f0c 	tst.w	r3, #12
 8001e12:	d007      	beq.n	8001e24 <HAL_RCC_OscConfig+0x134>
 8001e14:	6863      	ldr	r3, [r4, #4]
 8001e16:	f003 030c 	and.w	r3, r3, #12
 8001e1a:	2b08      	cmp	r3, #8
 8001e1c:	d11f      	bne.n	8001e5e <HAL_RCC_OscConfig+0x16e>
 8001e1e:	6863      	ldr	r3, [r4, #4]
 8001e20:	03de      	lsls	r6, r3, #15
 8001e22:	d41c      	bmi.n	8001e5e <HAL_RCC_OscConfig+0x16e>
 8001e24:	2302      	movs	r3, #2
 8001e26:	fa93 f2a3 	rbit	r2, r3
 8001e2a:	6821      	ldr	r1, [r4, #0]
 8001e2c:	fa93 f3a3 	rbit	r3, r3
 8001e30:	2201      	movs	r2, #1
 8001e32:	fab3 f383 	clz	r3, r3
 8001e36:	fa02 f303 	lsl.w	r3, r2, r3
 8001e3a:	420b      	tst	r3, r1
 8001e3c:	d002      	beq.n	8001e44 <HAL_RCC_OscConfig+0x154>
 8001e3e:	692b      	ldr	r3, [r5, #16]
 8001e40:	4293      	cmp	r3, r2
 8001e42:	d18e      	bne.n	8001d62 <HAL_RCC_OscConfig+0x72>
 8001e44:	6821      	ldr	r1, [r4, #0]
 8001e46:	22f8      	movs	r2, #248	; 0xf8
 8001e48:	fa92 f2a2 	rbit	r2, r2
 8001e4c:	696b      	ldr	r3, [r5, #20]
 8001e4e:	fab2 f282 	clz	r2, r2
 8001e52:	4093      	lsls	r3, r2
 8001e54:	f021 02f8 	bic.w	r2, r1, #248	; 0xf8
 8001e58:	4313      	orrs	r3, r2
 8001e5a:	6023      	str	r3, [r4, #0]
 8001e5c:	e754      	b.n	8001d08 <HAL_RCC_OscConfig+0x18>
 8001e5e:	692a      	ldr	r2, [r5, #16]
 8001e60:	2601      	movs	r6, #1
 8001e62:	b1fa      	cbz	r2, 8001ea4 <HAL_RCC_OscConfig+0x1b4>
 8001e64:	fa96 f3a6 	rbit	r3, r6
 8001e68:	fab3 f383 	clz	r3, r3
 8001e6c:	f103 5384 	add.w	r3, r3, #276824064	; 0x10800000
 8001e70:	f503 1384 	add.w	r3, r3, #1081344	; 0x108000
 8001e74:	009b      	lsls	r3, r3, #2
 8001e76:	f04f 0802 	mov.w	r8, #2
 8001e7a:	601e      	str	r6, [r3, #0]
 8001e7c:	f7fe fc86 	bl	800078c <HAL_GetTick>
 8001e80:	4607      	mov	r7, r0
 8001e82:	fa98 f3a8 	rbit	r3, r8
 8001e86:	6822      	ldr	r2, [r4, #0]
 8001e88:	fa98 f3a8 	rbit	r3, r8
 8001e8c:	fab3 f383 	clz	r3, r3
 8001e90:	fa06 f303 	lsl.w	r3, r6, r3
 8001e94:	4213      	tst	r3, r2
 8001e96:	d1d5      	bne.n	8001e44 <HAL_RCC_OscConfig+0x154>
 8001e98:	f7fe fc78 	bl	800078c <HAL_GetTick>
 8001e9c:	1bc0      	subs	r0, r0, r7
 8001e9e:	2802      	cmp	r0, #2
 8001ea0:	d9ef      	bls.n	8001e82 <HAL_RCC_OscConfig+0x192>
 8001ea2:	e786      	b.n	8001db2 <HAL_RCC_OscConfig+0xc2>
 8001ea4:	fa96 f3a6 	rbit	r3, r6
 8001ea8:	fab3 f383 	clz	r3, r3
 8001eac:	f103 5384 	add.w	r3, r3, #276824064	; 0x10800000
 8001eb0:	f503 1384 	add.w	r3, r3, #1081344	; 0x108000
 8001eb4:	009b      	lsls	r3, r3, #2
 8001eb6:	f04f 0802 	mov.w	r8, #2
 8001eba:	601a      	str	r2, [r3, #0]
 8001ebc:	f7fe fc66 	bl	800078c <HAL_GetTick>
 8001ec0:	4607      	mov	r7, r0
 8001ec2:	fa98 f3a8 	rbit	r3, r8
 8001ec6:	6822      	ldr	r2, [r4, #0]
 8001ec8:	fa98 f3a8 	rbit	r3, r8
 8001ecc:	fab3 f383 	clz	r3, r3
 8001ed0:	fa06 f303 	lsl.w	r3, r6, r3
 8001ed4:	4213      	tst	r3, r2
 8001ed6:	f43f af17 	beq.w	8001d08 <HAL_RCC_OscConfig+0x18>
 8001eda:	f7fe fc57 	bl	800078c <HAL_GetTick>
 8001ede:	1bc0      	subs	r0, r0, r7
 8001ee0:	2802      	cmp	r0, #2
 8001ee2:	d9ee      	bls.n	8001ec2 <HAL_RCC_OscConfig+0x1d2>
 8001ee4:	e765      	b.n	8001db2 <HAL_RCC_OscConfig+0xc2>
 8001ee6:	69aa      	ldr	r2, [r5, #24]
 8001ee8:	4e3f      	ldr	r6, [pc, #252]	; (8001fe8 <HAL_RCC_OscConfig+0x2f8>)
 8001eea:	4940      	ldr	r1, [pc, #256]	; (8001fec <HAL_RCC_OscConfig+0x2fc>)
 8001eec:	2401      	movs	r4, #1
 8001eee:	b30a      	cbz	r2, 8001f34 <HAL_RCC_OscConfig+0x244>
 8001ef0:	fa94 f3a4 	rbit	r3, r4
 8001ef4:	fab3 f383 	clz	r3, r3
 8001ef8:	440b      	add	r3, r1
 8001efa:	009b      	lsls	r3, r3, #2
 8001efc:	2702      	movs	r7, #2
 8001efe:	601c      	str	r4, [r3, #0]
 8001f00:	f7fe fc44 	bl	800078c <HAL_GetTick>
 8001f04:	4680      	mov	r8, r0
 8001f06:	fa97 f3a7 	rbit	r3, r7
 8001f0a:	fa97 f3a7 	rbit	r3, r7
 8001f0e:	fa97 f3a7 	rbit	r3, r7
 8001f12:	6a72      	ldr	r2, [r6, #36]	; 0x24
 8001f14:	fa97 f3a7 	rbit	r3, r7
 8001f18:	fab3 f383 	clz	r3, r3
 8001f1c:	fa04 f303 	lsl.w	r3, r4, r3
 8001f20:	4213      	tst	r3, r2
 8001f22:	f47f aef5 	bne.w	8001d10 <HAL_RCC_OscConfig+0x20>
 8001f26:	f7fe fc31 	bl	800078c <HAL_GetTick>
 8001f2a:	eba0 0008 	sub.w	r0, r0, r8
 8001f2e:	2802      	cmp	r0, #2
 8001f30:	d9e9      	bls.n	8001f06 <HAL_RCC_OscConfig+0x216>
 8001f32:	e73e      	b.n	8001db2 <HAL_RCC_OscConfig+0xc2>
 8001f34:	fa94 f3a4 	rbit	r3, r4
 8001f38:	fab3 f383 	clz	r3, r3
 8001f3c:	440b      	add	r3, r1
 8001f3e:	009b      	lsls	r3, r3, #2
 8001f40:	2702      	movs	r7, #2
 8001f42:	601a      	str	r2, [r3, #0]
 8001f44:	f7fe fc22 	bl	800078c <HAL_GetTick>
 8001f48:	4680      	mov	r8, r0
 8001f4a:	fa97 f3a7 	rbit	r3, r7
 8001f4e:	fa97 f3a7 	rbit	r3, r7
 8001f52:	fa97 f3a7 	rbit	r3, r7
 8001f56:	6a72      	ldr	r2, [r6, #36]	; 0x24
 8001f58:	fa97 f3a7 	rbit	r3, r7
 8001f5c:	fab3 f383 	clz	r3, r3
 8001f60:	fa04 f303 	lsl.w	r3, r4, r3
 8001f64:	4213      	tst	r3, r2
 8001f66:	f43f aed3 	beq.w	8001d10 <HAL_RCC_OscConfig+0x20>
 8001f6a:	f7fe fc0f 	bl	800078c <HAL_GetTick>
 8001f6e:	eba0 0008 	sub.w	r0, r0, r8
 8001f72:	2802      	cmp	r0, #2
 8001f74:	d9e9      	bls.n	8001f4a <HAL_RCC_OscConfig+0x25a>
 8001f76:	e71c      	b.n	8001db2 <HAL_RCC_OscConfig+0xc2>
 8001f78:	4c1b      	ldr	r4, [pc, #108]	; (8001fe8 <HAL_RCC_OscConfig+0x2f8>)
 8001f7a:	69e3      	ldr	r3, [r4, #28]
 8001f7c:	00d9      	lsls	r1, r3, #3
 8001f7e:	d431      	bmi.n	8001fe4 <HAL_RCC_OscConfig+0x2f4>
 8001f80:	69e3      	ldr	r3, [r4, #28]
 8001f82:	f043 5380 	orr.w	r3, r3, #268435456	; 0x10000000
 8001f86:	61e3      	str	r3, [r4, #28]
 8001f88:	69e3      	ldr	r3, [r4, #28]
 8001f8a:	f003 5380 	and.w	r3, r3, #268435456	; 0x10000000
 8001f8e:	9301      	str	r3, [sp, #4]
 8001f90:	9b01      	ldr	r3, [sp, #4]
 8001f92:	2601      	movs	r6, #1
 8001f94:	4f16      	ldr	r7, [pc, #88]	; (8001ff0 <HAL_RCC_OscConfig+0x300>)
 8001f96:	683b      	ldr	r3, [r7, #0]
 8001f98:	05da      	lsls	r2, r3, #23
 8001f9a:	d52b      	bpl.n	8001ff4 <HAL_RCC_OscConfig+0x304>
 8001f9c:	68eb      	ldr	r3, [r5, #12]
 8001f9e:	2b01      	cmp	r3, #1
 8001fa0:	d139      	bne.n	8002016 <HAL_RCC_OscConfig+0x326>
 8001fa2:	6a23      	ldr	r3, [r4, #32]
 8001fa4:	f043 0301 	orr.w	r3, r3, #1
 8001fa8:	6223      	str	r3, [r4, #32]
 8001faa:	f7fe fbef 	bl	800078c <HAL_GetTick>
 8001fae:	2702      	movs	r7, #2
 8001fb0:	4680      	mov	r8, r0
 8001fb2:	f04f 0901 	mov.w	r9, #1
 8001fb6:	f241 3a88 	movw	sl, #5000	; 0x1388
 8001fba:	fa97 f3a7 	rbit	r3, r7
 8001fbe:	fa97 f3a7 	rbit	r3, r7
 8001fc2:	6a22      	ldr	r2, [r4, #32]
 8001fc4:	fa97 f3a7 	rbit	r3, r7
 8001fc8:	fab3 f383 	clz	r3, r3
 8001fcc:	fa09 f303 	lsl.w	r3, r9, r3
 8001fd0:	4213      	tst	r3, r2
 8001fd2:	d053      	beq.n	800207c <HAL_RCC_OscConfig+0x38c>
 8001fd4:	2e00      	cmp	r6, #0
 8001fd6:	f43f ae9f 	beq.w	8001d18 <HAL_RCC_OscConfig+0x28>
 8001fda:	69e3      	ldr	r3, [r4, #28]
 8001fdc:	f023 5380 	bic.w	r3, r3, #268435456	; 0x10000000
 8001fe0:	61e3      	str	r3, [r4, #28]
 8001fe2:	e699      	b.n	8001d18 <HAL_RCC_OscConfig+0x28>
 8001fe4:	2600      	movs	r6, #0
 8001fe6:	e7d5      	b.n	8001f94 <HAL_RCC_OscConfig+0x2a4>
 8001fe8:	40021000 	.word	0x40021000
 8001fec:	10908120 	.word	0x10908120
 8001ff0:	40007000 	.word	0x40007000
 8001ff4:	683b      	ldr	r3, [r7, #0]
 8001ff6:	f443 7380 	orr.w	r3, r3, #256	; 0x100
 8001ffa:	603b      	str	r3, [r7, #0]
 8001ffc:	f7fe fbc6 	bl	800078c <HAL_GetTick>
 8002000:	4680      	mov	r8, r0
 8002002:	683b      	ldr	r3, [r7, #0]
 8002004:	05db      	lsls	r3, r3, #23
 8002006:	d4c9      	bmi.n	8001f9c <HAL_RCC_OscConfig+0x2ac>
 8002008:	f7fe fbc0 	bl	800078c <HAL_GetTick>
 800200c:	eba0 0008 	sub.w	r0, r0, r8
 8002010:	2864      	cmp	r0, #100	; 0x64
 8002012:	d9f6      	bls.n	8002002 <HAL_RCC_OscConfig+0x312>
 8002014:	e6cd      	b.n	8001db2 <HAL_RCC_OscConfig+0xc2>
 8002016:	bb1b      	cbnz	r3, 8002060 <HAL_RCC_OscConfig+0x370>
 8002018:	6a23      	ldr	r3, [r4, #32]
 800201a:	f023 0301 	bic.w	r3, r3, #1
 800201e:	6223      	str	r3, [r4, #32]
 8002020:	6a23      	ldr	r3, [r4, #32]
 8002022:	f023 0304 	bic.w	r3, r3, #4
 8002026:	6223      	str	r3, [r4, #32]
 8002028:	f7fe fbb0 	bl	800078c <HAL_GetTick>
 800202c:	2702      	movs	r7, #2
 800202e:	4680      	mov	r8, r0
 8002030:	f04f 0901 	mov.w	r9, #1
 8002034:	f241 3a88 	movw	sl, #5000	; 0x1388
 8002038:	fa97 f3a7 	rbit	r3, r7
 800203c:	fa97 f3a7 	rbit	r3, r7
 8002040:	6a22      	ldr	r2, [r4, #32]
 8002042:	fa97 f3a7 	rbit	r3, r7
 8002046:	fab3 f383 	clz	r3, r3
 800204a:	fa09 f303 	lsl.w	r3, r9, r3
 800204e:	4213      	tst	r3, r2
 8002050:	d0c0      	beq.n	8001fd4 <HAL_RCC_OscConfig+0x2e4>
 8002052:	f7fe fb9b 	bl	800078c <HAL_GetTick>
 8002056:	eba0 0008 	sub.w	r0, r0, r8
 800205a:	4550      	cmp	r0, sl
 800205c:	d9ec      	bls.n	8002038 <HAL_RCC_OscConfig+0x348>
 800205e:	e6a8      	b.n	8001db2 <HAL_RCC_OscConfig+0xc2>
 8002060:	2b05      	cmp	r3, #5
 8002062:	6a23      	ldr	r3, [r4, #32]
 8002064:	d103      	bne.n	800206e <HAL_RCC_OscConfig+0x37e>
 8002066:	f043 0304 	orr.w	r3, r3, #4
 800206a:	6223      	str	r3, [r4, #32]
 800206c:	e799      	b.n	8001fa2 <HAL_RCC_OscConfig+0x2b2>
 800206e:	f023 0301 	bic.w	r3, r3, #1
 8002072:	6223      	str	r3, [r4, #32]
 8002074:	6a23      	ldr	r3, [r4, #32]
 8002076:	f023 0304 	bic.w	r3, r3, #4
 800207a:	e795      	b.n	8001fa8 <HAL_RCC_OscConfig+0x2b8>
 800207c:	f7fe fb86 	bl	800078c <HAL_GetTick>
 8002080:	eba0 0008 	sub.w	r0, r0, r8
 8002084:	4550      	cmp	r0, sl
 8002086:	d998      	bls.n	8001fba <HAL_RCC_OscConfig+0x2ca>
 8002088:	e693      	b.n	8001db2 <HAL_RCC_OscConfig+0xc2>
 800208a:	4c46      	ldr	r4, [pc, #280]	; (80021a4 <HAL_RCC_OscConfig+0x4b4>)
 800208c:	6863      	ldr	r3, [r4, #4]
 800208e:	f003 030c 	and.w	r3, r3, #12
 8002092:	2b08      	cmp	r3, #8
 8002094:	d074      	beq.n	8002180 <HAL_RCC_OscConfig+0x490>
 8002096:	2802      	cmp	r0, #2
 8002098:	f04f 7380 	mov.w	r3, #16777216	; 0x1000000
 800209c:	d14d      	bne.n	800213a <HAL_RCC_OscConfig+0x44a>
 800209e:	fa93 f3a3 	rbit	r3, r3
 80020a2:	fab3 f383 	clz	r3, r3
 80020a6:	f103 5384 	add.w	r3, r3, #276824064	; 0x10800000
 80020aa:	f503 1384 	add.w	r3, r3, #1081344	; 0x108000
 80020ae:	009b      	lsls	r3, r3, #2
 80020b0:	2200      	movs	r2, #0
 80020b2:	601a      	str	r2, [r3, #0]
 80020b4:	f7fe fb6a 	bl	800078c <HAL_GetTick>
 80020b8:	f04f 7800 	mov.w	r8, #33554432	; 0x2000000
 80020bc:	4607      	mov	r7, r0
 80020be:	2601      	movs	r6, #1
 80020c0:	fa98 f3a8 	rbit	r3, r8
 80020c4:	6822      	ldr	r2, [r4, #0]
 80020c6:	fa98 f3a8 	rbit	r3, r8
 80020ca:	fab3 f383 	clz	r3, r3
 80020ce:	fa06 f303 	lsl.w	r3, r6, r3
 80020d2:	4213      	tst	r3, r2
 80020d4:	d12b      	bne.n	800212e <HAL_RCC_OscConfig+0x43e>
 80020d6:	e9d5 1308 	ldrd	r1, r3, [r5, #32]
 80020da:	6862      	ldr	r2, [r4, #4]
 80020dc:	430b      	orrs	r3, r1
 80020de:	f422 1274 	bic.w	r2, r2, #3997696	; 0x3d0000
 80020e2:	4313      	orrs	r3, r2
 80020e4:	6063      	str	r3, [r4, #4]
 80020e6:	f04f 7380 	mov.w	r3, #16777216	; 0x1000000
 80020ea:	fa93 f3a3 	rbit	r3, r3
 80020ee:	fab3 f383 	clz	r3, r3
 80020f2:	f103 5384 	add.w	r3, r3, #276824064	; 0x10800000
 80020f6:	f503 1384 	add.w	r3, r3, #1081344	; 0x108000
 80020fa:	009b      	lsls	r3, r3, #2
 80020fc:	2701      	movs	r7, #1
 80020fe:	601e      	str	r6, [r3, #0]
 8002100:	f7fe fb44 	bl	800078c <HAL_GetTick>
 8002104:	f04f 7600 	mov.w	r6, #33554432	; 0x2000000
 8002108:	4605      	mov	r5, r0
 800210a:	fa96 f3a6 	rbit	r3, r6
 800210e:	6822      	ldr	r2, [r4, #0]
 8002110:	fa96 f3a6 	rbit	r3, r6
 8002114:	fab3 f383 	clz	r3, r3
 8002118:	fa07 f303 	lsl.w	r3, r7, r3
 800211c:	4213      	tst	r3, r2
 800211e:	f47f adff 	bne.w	8001d20 <HAL_RCC_OscConfig+0x30>
 8002122:	f7fe fb33 	bl	800078c <HAL_GetTick>
 8002126:	1b40      	subs	r0, r0, r5
 8002128:	2802      	cmp	r0, #2
 800212a:	d9ee      	bls.n	800210a <HAL_RCC_OscConfig+0x41a>
 800212c:	e641      	b.n	8001db2 <HAL_RCC_OscConfig+0xc2>
 800212e:	f7fe fb2d 	bl	800078c <HAL_GetTick>
 8002132:	1bc0      	subs	r0, r0, r7
 8002134:	2802      	cmp	r0, #2
 8002136:	d9c3      	bls.n	80020c0 <HAL_RCC_OscConfig+0x3d0>
 8002138:	e63b      	b.n	8001db2 <HAL_RCC_OscConfig+0xc2>
 800213a:	fa93 f3a3 	rbit	r3, r3
 800213e:	fab3 f383 	clz	r3, r3
 8002142:	f103 5384 	add.w	r3, r3, #276824064	; 0x10800000
 8002146:	f503 1384 	add.w	r3, r3, #1081344	; 0x108000
 800214a:	009b      	lsls	r3, r3, #2
 800214c:	2200      	movs	r2, #0
 800214e:	601a      	str	r2, [r3, #0]
 8002150:	f7fe fb1c 	bl	800078c <HAL_GetTick>
 8002154:	f04f 7600 	mov.w	r6, #33554432	; 0x2000000
 8002158:	4605      	mov	r5, r0
 800215a:	2701      	movs	r7, #1
 800215c:	fa96 f3a6 	rbit	r3, r6
 8002160:	6822      	ldr	r2, [r4, #0]
 8002162:	fa96 f3a6 	rbit	r3, r6
 8002166:	fab3 f383 	clz	r3, r3
 800216a:	fa07 f303 	lsl.w	r3, r7, r3
 800216e:	4213      	tst	r3, r2
 8002170:	f43f add6 	beq.w	8001d20 <HAL_RCC_OscConfig+0x30>
 8002174:	f7fe fb0a 	bl	800078c <HAL_GetTick>
 8002178:	1b40      	subs	r0, r0, r5
 800217a:	2802      	cmp	r0, #2
 800217c:	d9ee      	bls.n	800215c <HAL_RCC_OscConfig+0x46c>
 800217e:	e618      	b.n	8001db2 <HAL_RCC_OscConfig+0xc2>
 8002180:	2801      	cmp	r0, #1
 8002182:	f43f ae17 	beq.w	8001db4 <HAL_RCC_OscConfig+0xc4>
 8002186:	6863      	ldr	r3, [r4, #4]
 8002188:	6a2a      	ldr	r2, [r5, #32]
 800218a:	f403 3180 	and.w	r1, r3, #65536	; 0x10000
 800218e:	4291      	cmp	r1, r2
 8002190:	f47f ade7 	bne.w	8001d62 <HAL_RCC_OscConfig+0x72>
 8002194:	6a6a      	ldr	r2, [r5, #36]	; 0x24
 8002196:	f403 1370 	and.w	r3, r3, #3932160	; 0x3c0000
 800219a:	4293      	cmp	r3, r2
 800219c:	f43f adc0 	beq.w	8001d20 <HAL_RCC_OscConfig+0x30>
 80021a0:	e5df      	b.n	8001d62 <HAL_RCC_OscConfig+0x72>
 80021a2:	bf00      	nop
 80021a4:	40021000 	.word	0x40021000

080021a8 <HAL_RCC_GetSysClockFreq>:
 80021a8:	b510      	push	{r4, lr}
 80021aa:	4c14      	ldr	r4, [pc, #80]	; (80021fc <HAL_RCC_GetSysClockFreq+0x54>)
 80021ac:	6861      	ldr	r1, [r4, #4]
 80021ae:	f001 030c 	and.w	r3, r1, #12
 80021b2:	2b08      	cmp	r3, #8
 80021b4:	d11f      	bne.n	80021f6 <HAL_RCC_GetSysClockFreq+0x4e>
 80021b6:	f44f 1370 	mov.w	r3, #3932160	; 0x3c0000
 80021ba:	fa93 f3a3 	rbit	r3, r3
 80021be:	f401 1270 	and.w	r2, r1, #3932160	; 0x3c0000
 80021c2:	fab3 f383 	clz	r3, r3
 80021c6:	fa22 f303 	lsr.w	r3, r2, r3
 80021ca:	4a0d      	ldr	r2, [pc, #52]	; (8002200 <HAL_RCC_GetSysClockFreq+0x58>)
 80021cc:	5cd0      	ldrb	r0, [r2, r3]
 80021ce:	6ae3      	ldr	r3, [r4, #44]	; 0x2c
 80021d0:	220f      	movs	r2, #15
 80021d2:	fa92 f2a2 	rbit	r2, r2
 80021d6:	03c9      	lsls	r1, r1, #15
 80021d8:	bf41      	itttt	mi
 80021da:	f003 030f 	andmi.w	r3, r3, #15
 80021de:	fab2 f282 	clzmi	r2, r2
 80021e2:	40d3      	lsrmi	r3, r2
 80021e4:	4a07      	ldrmi	r2, [pc, #28]	; (8002204 <HAL_RCC_GetSysClockFreq+0x5c>)
 80021e6:	bf51      	iteee	pl
 80021e8:	4b07      	ldrpl	r3, [pc, #28]	; (8002208 <HAL_RCC_GetSysClockFreq+0x60>)
 80021ea:	5cd2      	ldrbmi	r2, [r2, r3]
 80021ec:	4b07      	ldrmi	r3, [pc, #28]	; (800220c <HAL_RCC_GetSysClockFreq+0x64>)
 80021ee:	fbb3 f3f2 	udivmi	r3, r3, r2
 80021f2:	4358      	muls	r0, r3
 80021f4:	bd10      	pop	{r4, pc}
 80021f6:	4805      	ldr	r0, [pc, #20]	; (800220c <HAL_RCC_GetSysClockFreq+0x64>)
 80021f8:	e7fc      	b.n	80021f4 <HAL_RCC_GetSysClockFreq+0x4c>
 80021fa:	bf00      	nop
 80021fc:	40021000 	.word	0x40021000
 8002200:	08003f6c 	.word	0x08003f6c
 8002204:	08003f7c 	.word	0x08003f7c
 8002208:	003d0900 	.word	0x003d0900
 800220c:	007a1200 	.word	0x007a1200

08002210 <HAL_RCC_ClockConfig>:
 8002210:	e92d 41f0 	stmdb	sp!, {r4, r5, r6, r7, r8, lr}
 8002214:	460d      	mov	r5, r1
 8002216:	4604      	mov	r4, r0
 8002218:	b910      	cbnz	r0, 8002220 <HAL_RCC_ClockConfig+0x10>
 800221a:	2001      	movs	r0, #1
 800221c:	e8bd 81f0 	ldmia.w	sp!, {r4, r5, r6, r7, r8, pc}
 8002220:	4a4a      	ldr	r2, [pc, #296]	; (800234c <HAL_RCC_ClockConfig+0x13c>)
 8002222:	6813      	ldr	r3, [r2, #0]
 8002224:	f003 0307 	and.w	r3, r3, #7
 8002228:	428b      	cmp	r3, r1
 800222a:	d32e      	bcc.n	800228a <HAL_RCC_ClockConfig+0x7a>
 800222c:	6822      	ldr	r2, [r4, #0]
 800222e:	0791      	lsls	r1, r2, #30
 8002230:	d436      	bmi.n	80022a0 <HAL_RCC_ClockConfig+0x90>
 8002232:	07d2      	lsls	r2, r2, #31
 8002234:	d43c      	bmi.n	80022b0 <HAL_RCC_ClockConfig+0xa0>
 8002236:	4a45      	ldr	r2, [pc, #276]	; (800234c <HAL_RCC_ClockConfig+0x13c>)
 8002238:	6813      	ldr	r3, [r2, #0]
 800223a:	f003 0307 	and.w	r3, r3, #7
 800223e:	42ab      	cmp	r3, r5
 8002240:	d870      	bhi.n	8002324 <HAL_RCC_ClockConfig+0x114>
 8002242:	6822      	ldr	r2, [r4, #0]
 8002244:	4d42      	ldr	r5, [pc, #264]	; (8002350 <HAL_RCC_ClockConfig+0x140>)
 8002246:	f012 0f04 	tst.w	r2, #4
 800224a:	d177      	bne.n	800233c <HAL_RCC_ClockConfig+0x12c>
 800224c:	0713      	lsls	r3, r2, #28
 800224e:	d506      	bpl.n	800225e <HAL_RCC_ClockConfig+0x4e>
 8002250:	686b      	ldr	r3, [r5, #4]
 8002252:	6922      	ldr	r2, [r4, #16]
 8002254:	f423 5360 	bic.w	r3, r3, #14336	; 0x3800
 8002258:	ea43 03c2 	orr.w	r3, r3, r2, lsl #3
 800225c:	606b      	str	r3, [r5, #4]
 800225e:	f7ff ffa3 	bl	80021a8 <HAL_RCC_GetSysClockFreq>
 8002262:	686b      	ldr	r3, [r5, #4]
 8002264:	22f0      	movs	r2, #240	; 0xf0
 8002266:	fa92 f2a2 	rbit	r2, r2
 800226a:	fab2 f282 	clz	r2, r2
 800226e:	f003 03f0 	and.w	r3, r3, #240	; 0xf0
 8002272:	40d3      	lsrs	r3, r2
 8002274:	4a37      	ldr	r2, [pc, #220]	; (8002354 <HAL_RCC_ClockConfig+0x144>)
 8002276:	5cd3      	ldrb	r3, [r2, r3]
 8002278:	40d8      	lsrs	r0, r3
 800227a:	4b37      	ldr	r3, [pc, #220]	; (8002358 <HAL_RCC_ClockConfig+0x148>)
 800227c:	6018      	str	r0, [r3, #0]
 800227e:	4b37      	ldr	r3, [pc, #220]	; (800235c <HAL_RCC_ClockConfig+0x14c>)
 8002280:	6818      	ldr	r0, [r3, #0]
 8002282:	f7fe fa41 	bl	8000708 <HAL_InitTick>
 8002286:	2000      	movs	r0, #0
 8002288:	e7c8      	b.n	800221c <HAL_RCC_ClockConfig+0xc>
 800228a:	6813      	ldr	r3, [r2, #0]
 800228c:	f023 0307 	bic.w	r3, r3, #7
 8002290:	430b      	orrs	r3, r1
 8002292:	6013      	str	r3, [r2, #0]
 8002294:	6813      	ldr	r3, [r2, #0]
 8002296:	f003 0307 	and.w	r3, r3, #7
 800229a:	428b      	cmp	r3, r1
 800229c:	d1bd      	bne.n	800221a <HAL_RCC_ClockConfig+0xa>
 800229e:	e7c5      	b.n	800222c <HAL_RCC_ClockConfig+0x1c>
 80022a0:	492b      	ldr	r1, [pc, #172]	; (8002350 <HAL_RCC_ClockConfig+0x140>)
 80022a2:	68a0      	ldr	r0, [r4, #8]
 80022a4:	684b      	ldr	r3, [r1, #4]
 80022a6:	f023 03f0 	bic.w	r3, r3, #240	; 0xf0
 80022aa:	4303      	orrs	r3, r0
 80022ac:	604b      	str	r3, [r1, #4]
 80022ae:	e7c0      	b.n	8002232 <HAL_RCC_ClockConfig+0x22>
 80022b0:	6862      	ldr	r2, [r4, #4]
 80022b2:	4e27      	ldr	r6, [pc, #156]	; (8002350 <HAL_RCC_ClockConfig+0x140>)
 80022b4:	2a01      	cmp	r2, #1
 80022b6:	d124      	bne.n	8002302 <HAL_RCC_ClockConfig+0xf2>
 80022b8:	f44f 3300 	mov.w	r3, #131072	; 0x20000
 80022bc:	fa93 f1a3 	rbit	r1, r3
 80022c0:	6831      	ldr	r1, [r6, #0]
 80022c2:	fa93 f3a3 	rbit	r3, r3
 80022c6:	fab3 f383 	clz	r3, r3
 80022ca:	fa02 f303 	lsl.w	r3, r2, r3
 80022ce:	420b      	tst	r3, r1
 80022d0:	d0a3      	beq.n	800221a <HAL_RCC_ClockConfig+0xa>
 80022d2:	6873      	ldr	r3, [r6, #4]
 80022d4:	f023 0303 	bic.w	r3, r3, #3
 80022d8:	4313      	orrs	r3, r2
 80022da:	6073      	str	r3, [r6, #4]
 80022dc:	f7fe fa56 	bl	800078c <HAL_GetTick>
 80022e0:	f241 3888 	movw	r8, #5000	; 0x1388
 80022e4:	4607      	mov	r7, r0
 80022e6:	6873      	ldr	r3, [r6, #4]
 80022e8:	6862      	ldr	r2, [r4, #4]
 80022ea:	f003 030c 	and.w	r3, r3, #12
 80022ee:	ebb3 0f82 	cmp.w	r3, r2, lsl #2
 80022f2:	d0a0      	beq.n	8002236 <HAL_RCC_ClockConfig+0x26>
 80022f4:	f7fe fa4a 	bl	800078c <HAL_GetTick>
 80022f8:	1bc0      	subs	r0, r0, r7
 80022fa:	4540      	cmp	r0, r8
 80022fc:	d9f3      	bls.n	80022e6 <HAL_RCC_ClockConfig+0xd6>
 80022fe:	2003      	movs	r0, #3
 8002300:	e78c      	b.n	800221c <HAL_RCC_ClockConfig+0xc>
 8002302:	2a02      	cmp	r2, #2
 8002304:	bf0c      	ite	eq
 8002306:	f04f 7300 	moveq.w	r3, #33554432	; 0x2000000
 800230a:	2302      	movne	r3, #2
 800230c:	fa93 f1a3 	rbit	r1, r3
 8002310:	6830      	ldr	r0, [r6, #0]
 8002312:	fa93 f3a3 	rbit	r3, r3
 8002316:	2101      	movs	r1, #1
 8002318:	fab3 f383 	clz	r3, r3
 800231c:	fa01 f303 	lsl.w	r3, r1, r3
 8002320:	4203      	tst	r3, r0
 8002322:	e7d5      	b.n	80022d0 <HAL_RCC_ClockConfig+0xc0>
 8002324:	6813      	ldr	r3, [r2, #0]
 8002326:	f023 0307 	bic.w	r3, r3, #7
 800232a:	432b      	orrs	r3, r5
 800232c:	6013      	str	r3, [r2, #0]
 800232e:	6813      	ldr	r3, [r2, #0]
 8002330:	f003 0307 	and.w	r3, r3, #7
 8002334:	42ab      	cmp	r3, r5
 8002336:	f47f af70 	bne.w	800221a <HAL_RCC_ClockConfig+0xa>
 800233a:	e782      	b.n	8002242 <HAL_RCC_ClockConfig+0x32>
 800233c:	686b      	ldr	r3, [r5, #4]
 800233e:	68e1      	ldr	r1, [r4, #12]
 8002340:	f423 63e0 	bic.w	r3, r3, #1792	; 0x700
 8002344:	430b      	orrs	r3, r1
 8002346:	606b      	str	r3, [r5, #4]
 8002348:	e780      	b.n	800224c <HAL_RCC_ClockConfig+0x3c>
 800234a:	bf00      	nop
 800234c:	40022000 	.word	0x40022000
 8002350:	40021000 	.word	0x40021000
 8002354:	08003f5c 	.word	0x08003f5c
 8002358:	20000040 	.word	0x20000040
 800235c:	20000050 	.word	0x20000050

08002360 <HAL_RCCEx_PeriphCLKConfig>:
 8002360:	6803      	ldr	r3, [r0, #0]
 8002362:	e92d 47f3 	stmdb	sp!, {r0, r1, r4, r5, r6, r7, r8, r9, sl, lr}
 8002366:	03dd      	lsls	r5, r3, #15
 8002368:	4604      	mov	r4, r0
 800236a:	d523      	bpl.n	80023b4 <HAL_RCCEx_PeriphCLKConfig+0x54>
 800236c:	4d6f      	ldr	r5, [pc, #444]	; (800252c <HAL_RCCEx_PeriphCLKConfig+0x1cc>)
 800236e:	69eb      	ldr	r3, [r5, #28]
 8002370:	00d8      	lsls	r0, r3, #3
 8002372:	f100 8088 	bmi.w	8002486 <HAL_RCCEx_PeriphCLKConfig+0x126>
 8002376:	69eb      	ldr	r3, [r5, #28]
 8002378:	f043 5380 	orr.w	r3, r3, #268435456	; 0x10000000
 800237c:	61eb      	str	r3, [r5, #28]
 800237e:	69eb      	ldr	r3, [r5, #28]
 8002380:	f003 5380 	and.w	r3, r3, #268435456	; 0x10000000
 8002384:	9301      	str	r3, [sp, #4]
 8002386:	9b01      	ldr	r3, [sp, #4]
 8002388:	2601      	movs	r6, #1
 800238a:	4f69      	ldr	r7, [pc, #420]	; (8002530 <HAL_RCCEx_PeriphCLKConfig+0x1d0>)
 800238c:	683b      	ldr	r3, [r7, #0]
 800238e:	05d9      	lsls	r1, r3, #23
 8002390:	d57b      	bpl.n	800248a <HAL_RCCEx_PeriphCLKConfig+0x12a>
 8002392:	6a2b      	ldr	r3, [r5, #32]
 8002394:	6862      	ldr	r2, [r4, #4]
 8002396:	f413 7340 	ands.w	r3, r3, #768	; 0x300
 800239a:	f040 808b 	bne.w	80024b4 <HAL_RCCEx_PeriphCLKConfig+0x154>
 800239e:	6a2b      	ldr	r3, [r5, #32]
 80023a0:	6862      	ldr	r2, [r4, #4]
 80023a2:	f423 7340 	bic.w	r3, r3, #768	; 0x300
 80023a6:	4313      	orrs	r3, r2
 80023a8:	622b      	str	r3, [r5, #32]
 80023aa:	b11e      	cbz	r6, 80023b4 <HAL_RCCEx_PeriphCLKConfig+0x54>
 80023ac:	69eb      	ldr	r3, [r5, #28]
 80023ae:	f023 5380 	bic.w	r3, r3, #268435456	; 0x10000000
 80023b2:	61eb      	str	r3, [r5, #28]
 80023b4:	6823      	ldr	r3, [r4, #0]
 80023b6:	07dd      	lsls	r5, r3, #31
 80023b8:	d506      	bpl.n	80023c8 <HAL_RCCEx_PeriphCLKConfig+0x68>
 80023ba:	495c      	ldr	r1, [pc, #368]	; (800252c <HAL_RCCEx_PeriphCLKConfig+0x1cc>)
 80023bc:	68a0      	ldr	r0, [r4, #8]
 80023be:	6b0a      	ldr	r2, [r1, #48]	; 0x30
 80023c0:	f022 0203 	bic.w	r2, r2, #3
 80023c4:	4302      	orrs	r2, r0
 80023c6:	630a      	str	r2, [r1, #48]	; 0x30
 80023c8:	0798      	lsls	r0, r3, #30
 80023ca:	d506      	bpl.n	80023da <HAL_RCCEx_PeriphCLKConfig+0x7a>
 80023cc:	4957      	ldr	r1, [pc, #348]	; (800252c <HAL_RCCEx_PeriphCLKConfig+0x1cc>)
 80023ce:	68e0      	ldr	r0, [r4, #12]
 80023d0:	6b0a      	ldr	r2, [r1, #48]	; 0x30
 80023d2:	f422 3240 	bic.w	r2, r2, #196608	; 0x30000
 80023d6:	4302      	orrs	r2, r0
 80023d8:	630a      	str	r2, [r1, #48]	; 0x30
 80023da:	0759      	lsls	r1, r3, #29
 80023dc:	d506      	bpl.n	80023ec <HAL_RCCEx_PeriphCLKConfig+0x8c>
 80023de:	4953      	ldr	r1, [pc, #332]	; (800252c <HAL_RCCEx_PeriphCLKConfig+0x1cc>)
 80023e0:	6920      	ldr	r0, [r4, #16]
 80023e2:	6b0a      	ldr	r2, [r1, #48]	; 0x30
 80023e4:	f422 2240 	bic.w	r2, r2, #786432	; 0xc0000
 80023e8:	4302      	orrs	r2, r0
 80023ea:	630a      	str	r2, [r1, #48]	; 0x30
 80023ec:	069a      	lsls	r2, r3, #26
 80023ee:	d506      	bpl.n	80023fe <HAL_RCCEx_PeriphCLKConfig+0x9e>
 80023f0:	494e      	ldr	r1, [pc, #312]	; (800252c <HAL_RCCEx_PeriphCLKConfig+0x1cc>)
 80023f2:	69e0      	ldr	r0, [r4, #28]
 80023f4:	6b0a      	ldr	r2, [r1, #48]	; 0x30
 80023f6:	f022 0210 	bic.w	r2, r2, #16
 80023fa:	4302      	orrs	r2, r0
 80023fc:	630a      	str	r2, [r1, #48]	; 0x30
 80023fe:	039f      	lsls	r7, r3, #14
 8002400:	d506      	bpl.n	8002410 <HAL_RCCEx_PeriphCLKConfig+0xb0>
 8002402:	494a      	ldr	r1, [pc, #296]	; (800252c <HAL_RCCEx_PeriphCLKConfig+0x1cc>)
 8002404:	6b20      	ldr	r0, [r4, #48]	; 0x30
 8002406:	684a      	ldr	r2, [r1, #4]
 8002408:	f422 0280 	bic.w	r2, r2, #4194304	; 0x400000
 800240c:	4302      	orrs	r2, r0
 800240e:	604a      	str	r2, [r1, #4]
 8002410:	065e      	lsls	r6, r3, #25
 8002412:	d506      	bpl.n	8002422 <HAL_RCCEx_PeriphCLKConfig+0xc2>
 8002414:	4945      	ldr	r1, [pc, #276]	; (800252c <HAL_RCCEx_PeriphCLKConfig+0x1cc>)
 8002416:	6a20      	ldr	r0, [r4, #32]
 8002418:	6b0a      	ldr	r2, [r1, #48]	; 0x30
 800241a:	f022 0220 	bic.w	r2, r2, #32
 800241e:	4302      	orrs	r2, r0
 8002420:	630a      	str	r2, [r1, #48]	; 0x30
 8002422:	071d      	lsls	r5, r3, #28
 8002424:	d506      	bpl.n	8002434 <HAL_RCCEx_PeriphCLKConfig+0xd4>
 8002426:	4941      	ldr	r1, [pc, #260]	; (800252c <HAL_RCCEx_PeriphCLKConfig+0x1cc>)
 8002428:	6960      	ldr	r0, [r4, #20]
 800242a:	6b0a      	ldr	r2, [r1, #48]	; 0x30
 800242c:	f422 1240 	bic.w	r2, r2, #3145728	; 0x300000
 8002430:	4302      	orrs	r2, r0
 8002432:	630a      	str	r2, [r1, #48]	; 0x30
 8002434:	06d8      	lsls	r0, r3, #27
 8002436:	d506      	bpl.n	8002446 <HAL_RCCEx_PeriphCLKConfig+0xe6>
 8002438:	493c      	ldr	r1, [pc, #240]	; (800252c <HAL_RCCEx_PeriphCLKConfig+0x1cc>)
 800243a:	69a0      	ldr	r0, [r4, #24]
 800243c:	6b0a      	ldr	r2, [r1, #48]	; 0x30
 800243e:	f422 0240 	bic.w	r2, r2, #12582912	; 0xc00000
 8002442:	4302      	orrs	r2, r0
 8002444:	630a      	str	r2, [r1, #48]	; 0x30
 8002446:	0599      	lsls	r1, r3, #22
 8002448:	d506      	bpl.n	8002458 <HAL_RCCEx_PeriphCLKConfig+0xf8>
 800244a:	4938      	ldr	r1, [pc, #224]	; (800252c <HAL_RCCEx_PeriphCLKConfig+0x1cc>)
 800244c:	6aa0      	ldr	r0, [r4, #40]	; 0x28
 800244e:	684a      	ldr	r2, [r1, #4]
 8002450:	f422 0200 	bic.w	r2, r2, #8388608	; 0x800000
 8002454:	4302      	orrs	r2, r0
 8002456:	604a      	str	r2, [r1, #4]
 8002458:	061a      	lsls	r2, r3, #24
 800245a:	d506      	bpl.n	800246a <HAL_RCCEx_PeriphCLKConfig+0x10a>
 800245c:	4933      	ldr	r1, [pc, #204]	; (800252c <HAL_RCCEx_PeriphCLKConfig+0x1cc>)
 800245e:	6a60      	ldr	r0, [r4, #36]	; 0x24
 8002460:	6aca      	ldr	r2, [r1, #44]	; 0x2c
 8002462:	f422 72f8 	bic.w	r2, r2, #496	; 0x1f0
 8002466:	4302      	orrs	r2, r0
 8002468:	62ca      	str	r2, [r1, #44]	; 0x2c
 800246a:	f413 5380 	ands.w	r3, r3, #4096	; 0x1000
 800246e:	bf1f      	itttt	ne
 8002470:	4a2e      	ldrne	r2, [pc, #184]	; (800252c <HAL_RCCEx_PeriphCLKConfig+0x1cc>)
 8002472:	6ae1      	ldrne	r1, [r4, #44]	; 0x2c
 8002474:	6b13      	ldrne	r3, [r2, #48]	; 0x30
 8002476:	f423 7380 	bicne.w	r3, r3, #256	; 0x100
 800247a:	bf1d      	ittte	ne
 800247c:	430b      	orrne	r3, r1
 800247e:	6313      	strne	r3, [r2, #48]	; 0x30
 8002480:	2000      	movne	r0, #0
 8002482:	4618      	moveq	r0, r3
 8002484:	e013      	b.n	80024ae <HAL_RCCEx_PeriphCLKConfig+0x14e>
 8002486:	2600      	movs	r6, #0
 8002488:	e77f      	b.n	800238a <HAL_RCCEx_PeriphCLKConfig+0x2a>
 800248a:	683b      	ldr	r3, [r7, #0]
 800248c:	f443 7380 	orr.w	r3, r3, #256	; 0x100
 8002490:	603b      	str	r3, [r7, #0]
 8002492:	f7fe f97b 	bl	800078c <HAL_GetTick>
 8002496:	4680      	mov	r8, r0
 8002498:	683b      	ldr	r3, [r7, #0]
 800249a:	05da      	lsls	r2, r3, #23
 800249c:	f53f af79 	bmi.w	8002392 <HAL_RCCEx_PeriphCLKConfig+0x32>
 80024a0:	f7fe f974 	bl	800078c <HAL_GetTick>
 80024a4:	eba0 0008 	sub.w	r0, r0, r8
 80024a8:	2864      	cmp	r0, #100	; 0x64
 80024aa:	d9f5      	bls.n	8002498 <HAL_RCCEx_PeriphCLKConfig+0x138>
 80024ac:	2003      	movs	r0, #3
 80024ae:	b002      	add	sp, #8
 80024b0:	e8bd 87f0 	ldmia.w	sp!, {r4, r5, r6, r7, r8, r9, sl, pc}
 80024b4:	f402 7240 	and.w	r2, r2, #768	; 0x300
 80024b8:	429a      	cmp	r2, r3
 80024ba:	f43f af70 	beq.w	800239e <HAL_RCCEx_PeriphCLKConfig+0x3e>
 80024be:	6a29      	ldr	r1, [r5, #32]
 80024c0:	f44f 3380 	mov.w	r3, #65536	; 0x10000
 80024c4:	f421 7040 	bic.w	r0, r1, #768	; 0x300
 80024c8:	fa93 f2a3 	rbit	r2, r3
 80024cc:	f8df c064 	ldr.w	ip, [pc, #100]	; 8002534 <HAL_RCCEx_PeriphCLKConfig+0x1d4>
 80024d0:	fab2 f282 	clz	r2, r2
 80024d4:	4462      	add	r2, ip
 80024d6:	0092      	lsls	r2, r2, #2
 80024d8:	2701      	movs	r7, #1
 80024da:	6017      	str	r7, [r2, #0]
 80024dc:	fa93 f3a3 	rbit	r3, r3
 80024e0:	fab3 f383 	clz	r3, r3
 80024e4:	4463      	add	r3, ip
 80024e6:	009b      	lsls	r3, r3, #2
 80024e8:	2200      	movs	r2, #0
 80024ea:	601a      	str	r2, [r3, #0]
 80024ec:	07cb      	lsls	r3, r1, #31
 80024ee:	6228      	str	r0, [r5, #32]
 80024f0:	f57f af55 	bpl.w	800239e <HAL_RCCEx_PeriphCLKConfig+0x3e>
 80024f4:	f7fe f94a 	bl	800078c <HAL_GetTick>
 80024f8:	f04f 0802 	mov.w	r8, #2
 80024fc:	4681      	mov	r9, r0
 80024fe:	f241 3a88 	movw	sl, #5000	; 0x1388
 8002502:	fa98 f3a8 	rbit	r3, r8
 8002506:	fa98 f3a8 	rbit	r3, r8
 800250a:	6a2a      	ldr	r2, [r5, #32]
 800250c:	fa98 f3a8 	rbit	r3, r8
 8002510:	fab3 f383 	clz	r3, r3
 8002514:	fa07 f303 	lsl.w	r3, r7, r3
 8002518:	4213      	tst	r3, r2
 800251a:	f47f af40 	bne.w	800239e <HAL_RCCEx_PeriphCLKConfig+0x3e>
 800251e:	f7fe f935 	bl	800078c <HAL_GetTick>
 8002522:	eba0 0009 	sub.w	r0, r0, r9
 8002526:	4550      	cmp	r0, sl
 8002528:	d9eb      	bls.n	8002502 <HAL_RCCEx_PeriphCLKConfig+0x1a2>
 800252a:	e7bf      	b.n	80024ac <HAL_RCCEx_PeriphCLKConfig+0x14c>
 800252c:	40021000 	.word	0x40021000
 8002530:	40007000 	.word	0x40007000
 8002534:	10908100 	.word	0x10908100

08002538 <USB_EnableGlobalInt>:
 8002538:	2300      	movs	r3, #0
 800253a:	f44f 423f 	mov.w	r2, #48896	; 0xbf00
 800253e:	f8a0 3044 	strh.w	r3, [r0, #68]	; 0x44
 8002542:	f8a0 2040 	strh.w	r2, [r0, #64]	; 0x40
 8002546:	4618      	mov	r0, r3
 8002548:	4770      	bx	lr

0800254a <USB_DisableGlobalInt>:
 800254a:	f8b0 3040 	ldrh.w	r3, [r0, #64]	; 0x40
 800254e:	f423 537c 	bic.w	r3, r3, #16128	; 0x3f00
 8002552:	045b      	lsls	r3, r3, #17
 8002554:	0c5b      	lsrs	r3, r3, #17
 8002556:	f8a0 3040 	strh.w	r3, [r0, #64]	; 0x40
 800255a:	2000      	movs	r0, #0
 800255c:	4770      	bx	lr

0800255e <USB_DevInit>:
 800255e:	b084      	sub	sp, #16
 8002560:	b510      	push	{r4, lr}
 8002562:	ac03      	add	r4, sp, #12
 8002564:	e884 000e 	stmia.w	r4, {r1, r2, r3}
 8002568:	e8bd 4010 	ldmia.w	sp!, {r4, lr}
 800256c:	2301      	movs	r3, #1
 800256e:	f8a0 3040 	strh.w	r3, [r0, #64]	; 0x40
 8002572:	2300      	movs	r3, #0
 8002574:	f8a0 3040 	strh.w	r3, [r0, #64]	; 0x40
 8002578:	b004      	add	sp, #16
 800257a:	f8a0 3044 	strh.w	r3, [r0, #68]	; 0x44
 800257e:	f8a0 3050 	strh.w	r3, [r0, #80]	; 0x50
 8002582:	4618      	mov	r0, r3
 8002584:	4770      	bx	lr
	...

08002588 <USB_ActivateEndpoint>:
 8002588:	b5f0      	push	{r4, r5, r6, r7, lr}
 800258a:	780d      	ldrb	r5, [r1, #0]
 800258c:	78ce      	ldrb	r6, [r1, #3]
 800258e:	f830 4025 	ldrh.w	r4, [r0, r5, lsl #2]
 8002592:	f424 44ec 	bic.w	r4, r4, #30208	; 0x7600
 8002596:	f024 0470 	bic.w	r4, r4, #112	; 0x70
 800259a:	0424      	lsls	r4, r4, #16
 800259c:	4603      	mov	r3, r0
 800259e:	462a      	mov	r2, r5
 80025a0:	0c24      	lsrs	r4, r4, #16
 80025a2:	2e03      	cmp	r6, #3
 80025a4:	d853      	bhi.n	800264e <USB_ActivateEndpoint+0xc6>
 80025a6:	e8df f006 	tbb	[pc, r6]
 80025aa:	4f02      	.short	0x4f02
 80025ac:	4b4d      	.short	0x4b4d
 80025ae:	f444 7400 	orr.w	r4, r4, #512	; 0x200
 80025b2:	4630      	mov	r0, r6
 80025b4:	f248 0c80 	movw	ip, #32896	; 0x8080
 80025b8:	ea44 040c 	orr.w	r4, r4, ip
 80025bc:	f823 4022 	strh.w	r4, [r3, r2, lsl #2]
 80025c0:	f833 4022 	ldrh.w	r4, [r3, r2, lsl #2]
 80025c4:	f8df e284 	ldr.w	lr, [pc, #644]	; 800284c <USB_ActivateEndpoint+0x2c4>
 80025c8:	b2a4      	uxth	r4, r4
 80025ca:	ea04 040e 	and.w	r4, r4, lr
 80025ce:	432c      	orrs	r4, r5
 80025d0:	ea4c 0404 	orr.w	r4, ip, r4
 80025d4:	f823 4022 	strh.w	r4, [r3, r2, lsl #2]
 80025d8:	7b0c      	ldrb	r4, [r1, #12]
 80025da:	eb03 1705 	add.w	r7, r3, r5, lsl #4
 80025de:	2c00      	cmp	r4, #0
 80025e0:	f040 8087 	bne.w	80026f2 <USB_ActivateEndpoint+0x16a>
 80025e4:	88cc      	ldrh	r4, [r1, #6]
 80025e6:	f891 c001 	ldrb.w	ip, [r1, #1]
 80025ea:	0864      	lsrs	r4, r4, #1
 80025ec:	0064      	lsls	r4, r4, #1
 80025ee:	f1bc 0f00 	cmp.w	ip, #0
 80025f2:	d02e      	beq.n	8002652 <USB_ActivateEndpoint+0xca>
 80025f4:	f8b3 1050 	ldrh.w	r1, [r3, #80]	; 0x50
 80025f8:	fa17 f181 	uxtah	r1, r7, r1
 80025fc:	f8a1 4400 	strh.w	r4, [r1, #1024]	; 0x400
 8002600:	f833 1022 	ldrh.w	r1, [r3, r2, lsl #2]
 8002604:	0649      	lsls	r1, r1, #25
 8002606:	d50a      	bpl.n	800261e <USB_ActivateEndpoint+0x96>
 8002608:	f833 1022 	ldrh.w	r1, [r3, r2, lsl #2]
 800260c:	b289      	uxth	r1, r1
 800260e:	ea01 010e 	and.w	r1, r1, lr
 8002612:	f441 4100 	orr.w	r1, r1, #32768	; 0x8000
 8002616:	f041 01c0 	orr.w	r1, r1, #192	; 0xc0
 800261a:	f823 1022 	strh.w	r1, [r3, r2, lsl #2]
 800261e:	f833 1022 	ldrh.w	r1, [r3, r2, lsl #2]
 8002622:	4c88      	ldr	r4, [pc, #544]	; (8002844 <USB_ActivateEndpoint+0x2bc>)
 8002624:	b289      	uxth	r1, r1
 8002626:	2e01      	cmp	r6, #1
 8002628:	ea01 0104 	and.w	r1, r1, r4
 800262c:	d001      	beq.n	8002632 <USB_ActivateEndpoint+0xaa>
 800262e:	f081 0120 	eor.w	r1, r1, #32
 8002632:	f441 4100 	orr.w	r1, r1, #32768	; 0x8000
 8002636:	f041 0180 	orr.w	r1, r1, #128	; 0x80
 800263a:	f823 1022 	strh.w	r1, [r3, r2, lsl #2]
 800263e:	e0b8      	b.n	80027b2 <USB_ActivateEndpoint+0x22a>
 8002640:	f444 64c0 	orr.w	r4, r4, #1536	; 0x600
 8002644:	2000      	movs	r0, #0
 8002646:	e7b5      	b.n	80025b4 <USB_ActivateEndpoint+0x2c>
 8002648:	f444 6480 	orr.w	r4, r4, #1024	; 0x400
 800264c:	e7fa      	b.n	8002644 <USB_ActivateEndpoint+0xbc>
 800264e:	2001      	movs	r0, #1
 8002650:	e7b0      	b.n	80025b4 <USB_ActivateEndpoint+0x2c>
 8002652:	f8b3 6050 	ldrh.w	r6, [r3, #80]	; 0x50
 8002656:	6909      	ldr	r1, [r1, #16]
 8002658:	fa17 f686 	uxtah	r6, r7, r6
 800265c:	293e      	cmp	r1, #62	; 0x3e
 800265e:	f8a6 4408 	strh.w	r4, [r6, #1032]	; 0x408
 8002662:	f8b3 4050 	ldrh.w	r4, [r3, #80]	; 0x50
 8002666:	fa17 f484 	uxtah	r4, r7, r4
 800266a:	f8b4 640c 	ldrh.w	r6, [r4, #1036]	; 0x40c
 800266e:	f3c6 0609 	ubfx	r6, r6, #0, #10
 8002672:	f8a4 640c 	strh.w	r6, [r4, #1036]	; 0x40c
 8002676:	d92b      	bls.n	80026d0 <USB_ActivateEndpoint+0x148>
 8002678:	094e      	lsrs	r6, r1, #5
 800267a:	06cf      	lsls	r7, r1, #27
 800267c:	f8b4 140c 	ldrh.w	r1, [r4, #1036]	; 0x40c
 8002680:	bf08      	it	eq
 8002682:	f106 36ff 	addeq.w	r6, r6, #4294967295
 8002686:	b289      	uxth	r1, r1
 8002688:	ea41 2186 	orr.w	r1, r1, r6, lsl #10
 800268c:	ea6f 4141 	mvn.w	r1, r1, lsl #17
 8002690:	ea6f 4151 	mvn.w	r1, r1, lsr #17
 8002694:	b289      	uxth	r1, r1
 8002696:	f8a4 140c 	strh.w	r1, [r4, #1036]	; 0x40c
 800269a:	f833 1022 	ldrh.w	r1, [r3, r2, lsl #2]
 800269e:	044f      	lsls	r7, r1, #17
 80026a0:	d50d      	bpl.n	80026be <USB_ActivateEndpoint+0x136>
 80026a2:	f833 1022 	ldrh.w	r1, [r3, r2, lsl #2]
 80026a6:	f421 41e0 	bic.w	r1, r1, #28672	; 0x7000
 80026aa:	f021 0170 	bic.w	r1, r1, #112	; 0x70
 80026ae:	0409      	lsls	r1, r1, #16
 80026b0:	0c09      	lsrs	r1, r1, #16
 80026b2:	f441 4140 	orr.w	r1, r1, #49152	; 0xc000
 80026b6:	f041 0180 	orr.w	r1, r1, #128	; 0x80
 80026ba:	f823 1022 	strh.w	r1, [r3, r2, lsl #2]
 80026be:	f833 1022 	ldrh.w	r1, [r3, r2, lsl #2]
 80026c2:	4c61      	ldr	r4, [pc, #388]	; (8002848 <USB_ActivateEndpoint+0x2c0>)
 80026c4:	b289      	uxth	r1, r1
 80026c6:	4021      	ands	r1, r4
 80026c8:	b985      	cbnz	r5, 80026ec <USB_ActivateEndpoint+0x164>
 80026ca:	f481 5140 	eor.w	r1, r1, #12288	; 0x3000
 80026ce:	e7b0      	b.n	8002632 <USB_ActivateEndpoint+0xaa>
 80026d0:	b911      	cbnz	r1, 80026d8 <USB_ActivateEndpoint+0x150>
 80026d2:	f8b4 140c 	ldrh.w	r1, [r4, #1036]	; 0x40c
 80026d6:	e7d9      	b.n	800268c <USB_ActivateEndpoint+0x104>
 80026d8:	084e      	lsrs	r6, r1, #1
 80026da:	07c9      	lsls	r1, r1, #31
 80026dc:	f8b4 140c 	ldrh.w	r1, [r4, #1036]	; 0x40c
 80026e0:	bf48      	it	mi
 80026e2:	3601      	addmi	r6, #1
 80026e4:	b289      	uxth	r1, r1
 80026e6:	ea41 2186 	orr.w	r1, r1, r6, lsl #10
 80026ea:	e7d3      	b.n	8002694 <USB_ActivateEndpoint+0x10c>
 80026ec:	f481 5100 	eor.w	r1, r1, #8192	; 0x2000
 80026f0:	e79f      	b.n	8002632 <USB_ActivateEndpoint+0xaa>
 80026f2:	2e02      	cmp	r6, #2
 80026f4:	f833 4022 	ldrh.w	r4, [r3, r2, lsl #2]
 80026f8:	d15c      	bne.n	80027b4 <USB_ActivateEndpoint+0x22c>
 80026fa:	b2a4      	uxth	r4, r4
 80026fc:	ea04 040e 	and.w	r4, r4, lr
 8002700:	f444 4401 	orr.w	r4, r4, #33024	; 0x8100
 8002704:	f044 0480 	orr.w	r4, r4, #128	; 0x80
 8002708:	f823 4022 	strh.w	r4, [r3, r2, lsl #2]
 800270c:	f8b3 5050 	ldrh.w	r5, [r3, #80]	; 0x50
 8002710:	890c      	ldrh	r4, [r1, #8]
 8002712:	fa17 f585 	uxtah	r5, r7, r5
 8002716:	0864      	lsrs	r4, r4, #1
 8002718:	0064      	lsls	r4, r4, #1
 800271a:	f8a5 4400 	strh.w	r4, [r5, #1024]	; 0x400
 800271e:	894c      	ldrh	r4, [r1, #10]
 8002720:	f8b3 5050 	ldrh.w	r5, [r3, #80]	; 0x50
 8002724:	0864      	lsrs	r4, r4, #1
 8002726:	fa17 f585 	uxtah	r5, r7, r5
 800272a:	0064      	lsls	r4, r4, #1
 800272c:	f8a5 4408 	strh.w	r4, [r5, #1032]	; 0x408
 8002730:	7849      	ldrb	r1, [r1, #1]
 8002732:	2900      	cmp	r1, #0
 8002734:	d149      	bne.n	80027ca <USB_ActivateEndpoint+0x242>
 8002736:	f833 1022 	ldrh.w	r1, [r3, r2, lsl #2]
 800273a:	044e      	lsls	r6, r1, #17
 800273c:	d50d      	bpl.n	800275a <USB_ActivateEndpoint+0x1d2>
 800273e:	f833 1022 	ldrh.w	r1, [r3, r2, lsl #2]
 8002742:	f421 41e0 	bic.w	r1, r1, #28672	; 0x7000
 8002746:	f021 0170 	bic.w	r1, r1, #112	; 0x70
 800274a:	0409      	lsls	r1, r1, #16
 800274c:	0c09      	lsrs	r1, r1, #16
 800274e:	f441 4140 	orr.w	r1, r1, #49152	; 0xc000
 8002752:	f041 0180 	orr.w	r1, r1, #128	; 0x80
 8002756:	f823 1022 	strh.w	r1, [r3, r2, lsl #2]
 800275a:	f833 1022 	ldrh.w	r1, [r3, r2, lsl #2]
 800275e:	064d      	lsls	r5, r1, #25
 8002760:	d50d      	bpl.n	800277e <USB_ActivateEndpoint+0x1f6>
 8002762:	f833 1022 	ldrh.w	r1, [r3, r2, lsl #2]
 8002766:	f421 41e0 	bic.w	r1, r1, #28672	; 0x7000
 800276a:	f021 0170 	bic.w	r1, r1, #112	; 0x70
 800276e:	0409      	lsls	r1, r1, #16
 8002770:	0c09      	lsrs	r1, r1, #16
 8002772:	f441 4100 	orr.w	r1, r1, #32768	; 0x8000
 8002776:	f041 01c0 	orr.w	r1, r1, #192	; 0xc0
 800277a:	f823 1022 	strh.w	r1, [r3, r2, lsl #2]
 800277e:	f833 1022 	ldrh.w	r1, [r3, r2, lsl #2]
 8002782:	f421 4180 	bic.w	r1, r1, #16384	; 0x4000
 8002786:	f021 0170 	bic.w	r1, r1, #112	; 0x70
 800278a:	0409      	lsls	r1, r1, #16
 800278c:	0c09      	lsrs	r1, r1, #16
 800278e:	f248 0480 	movw	r4, #32896	; 0x8080
 8002792:	f481 5140 	eor.w	r1, r1, #12288	; 0x3000
 8002796:	4321      	orrs	r1, r4
 8002798:	f823 1022 	strh.w	r1, [r3, r2, lsl #2]
 800279c:	f833 1022 	ldrh.w	r1, [r3, r2, lsl #2]
 80027a0:	f421 41e0 	bic.w	r1, r1, #28672	; 0x7000
 80027a4:	f021 0140 	bic.w	r1, r1, #64	; 0x40
 80027a8:	0409      	lsls	r1, r1, #16
 80027aa:	0c09      	lsrs	r1, r1, #16
 80027ac:	430c      	orrs	r4, r1
 80027ae:	f823 4022 	strh.w	r4, [r3, r2, lsl #2]
 80027b2:	bdf0      	pop	{r4, r5, r6, r7, pc}
 80027b4:	f424 44e2 	bic.w	r4, r4, #28928	; 0x7100
 80027b8:	f024 0470 	bic.w	r4, r4, #112	; 0x70
 80027bc:	0424      	lsls	r4, r4, #16
 80027be:	0c24      	lsrs	r4, r4, #16
 80027c0:	ea4c 0c04 	orr.w	ip, ip, r4
 80027c4:	f823 c022 	strh.w	ip, [r3, r2, lsl #2]
 80027c8:	e7a0      	b.n	800270c <USB_ActivateEndpoint+0x184>
 80027ca:	f833 1022 	ldrh.w	r1, [r3, r2, lsl #2]
 80027ce:	044c      	lsls	r4, r1, #17
 80027d0:	d50d      	bpl.n	80027ee <USB_ActivateEndpoint+0x266>
 80027d2:	f833 1022 	ldrh.w	r1, [r3, r2, lsl #2]
 80027d6:	f421 41e0 	bic.w	r1, r1, #28672	; 0x7000
 80027da:	f021 0170 	bic.w	r1, r1, #112	; 0x70
 80027de:	0409      	lsls	r1, r1, #16
 80027e0:	0c09      	lsrs	r1, r1, #16
 80027e2:	f441 4140 	orr.w	r1, r1, #49152	; 0xc000
 80027e6:	f041 0180 	orr.w	r1, r1, #128	; 0x80
 80027ea:	f823 1022 	strh.w	r1, [r3, r2, lsl #2]
 80027ee:	f833 1022 	ldrh.w	r1, [r3, r2, lsl #2]
 80027f2:	0649      	lsls	r1, r1, #25
 80027f4:	d50d      	bpl.n	8002812 <USB_ActivateEndpoint+0x28a>
 80027f6:	f833 1022 	ldrh.w	r1, [r3, r2, lsl #2]
 80027fa:	f421 41e0 	bic.w	r1, r1, #28672	; 0x7000
 80027fe:	f021 0170 	bic.w	r1, r1, #112	; 0x70
 8002802:	0409      	lsls	r1, r1, #16
 8002804:	0c09      	lsrs	r1, r1, #16
 8002806:	f441 4100 	orr.w	r1, r1, #32768	; 0x8000
 800280a:	f041 01c0 	orr.w	r1, r1, #192	; 0xc0
 800280e:	f823 1022 	strh.w	r1, [r3, r2, lsl #2]
 8002812:	f833 1022 	ldrh.w	r1, [r3, r2, lsl #2]
 8002816:	4c0b      	ldr	r4, [pc, #44]	; (8002844 <USB_ActivateEndpoint+0x2bc>)
 8002818:	b289      	uxth	r1, r1
 800281a:	4021      	ands	r1, r4
 800281c:	2e01      	cmp	r6, #1
 800281e:	bf18      	it	ne
 8002820:	f081 0120 	eorne.w	r1, r1, #32
 8002824:	f441 4100 	orr.w	r1, r1, #32768	; 0x8000
 8002828:	f041 0180 	orr.w	r1, r1, #128	; 0x80
 800282c:	f823 1022 	strh.w	r1, [r3, r2, lsl #2]
 8002830:	f833 1022 	ldrh.w	r1, [r3, r2, lsl #2]
 8002834:	f421 4180 	bic.w	r1, r1, #16384	; 0x4000
 8002838:	f021 0170 	bic.w	r1, r1, #112	; 0x70
 800283c:	0409      	lsls	r1, r1, #16
 800283e:	0c09      	lsrs	r1, r1, #16
 8002840:	e6f7      	b.n	8002632 <USB_ActivateEndpoint+0xaa>
 8002842:	bf00      	nop
 8002844:	ffff8fbf 	.word	0xffff8fbf
 8002848:	ffffbf8f 	.word	0xffffbf8f
 800284c:	ffff8f8f 	.word	0xffff8f8f

08002850 <USB_DeactivateEndpoint>:
 8002850:	784a      	ldrb	r2, [r1, #1]
 8002852:	780b      	ldrb	r3, [r1, #0]
 8002854:	7b09      	ldrb	r1, [r1, #12]
 8002856:	bbd9      	cbnz	r1, 80028d0 <USB_DeactivateEndpoint+0x80>
 8002858:	b30a      	cbz	r2, 800289e <USB_DeactivateEndpoint+0x4e>
 800285a:	f830 2023 	ldrh.w	r2, [r0, r3, lsl #2]
 800285e:	0651      	lsls	r1, r2, #25
 8002860:	d50d      	bpl.n	800287e <USB_DeactivateEndpoint+0x2e>
 8002862:	f830 2023 	ldrh.w	r2, [r0, r3, lsl #2]
 8002866:	f422 42e0 	bic.w	r2, r2, #28672	; 0x7000
 800286a:	f022 0270 	bic.w	r2, r2, #112	; 0x70
 800286e:	0412      	lsls	r2, r2, #16
 8002870:	0c12      	lsrs	r2, r2, #16
 8002872:	f442 4200 	orr.w	r2, r2, #32768	; 0x8000
 8002876:	f042 02c0 	orr.w	r2, r2, #192	; 0xc0
 800287a:	f820 2023 	strh.w	r2, [r0, r3, lsl #2]
 800287e:	f830 2023 	ldrh.w	r2, [r0, r3, lsl #2]
 8002882:	f422 42e0 	bic.w	r2, r2, #28672	; 0x7000
 8002886:	f022 0240 	bic.w	r2, r2, #64	; 0x40
 800288a:	0412      	lsls	r2, r2, #16
 800288c:	0c12      	lsrs	r2, r2, #16
 800288e:	f442 4200 	orr.w	r2, r2, #32768	; 0x8000
 8002892:	f042 0280 	orr.w	r2, r2, #128	; 0x80
 8002896:	f820 2023 	strh.w	r2, [r0, r3, lsl #2]
 800289a:	2000      	movs	r0, #0
 800289c:	4770      	bx	lr
 800289e:	f830 2023 	ldrh.w	r2, [r0, r3, lsl #2]
 80028a2:	0452      	lsls	r2, r2, #17
 80028a4:	d50d      	bpl.n	80028c2 <USB_DeactivateEndpoint+0x72>
 80028a6:	f830 2023 	ldrh.w	r2, [r0, r3, lsl #2]
 80028aa:	f422 42e0 	bic.w	r2, r2, #28672	; 0x7000
 80028ae:	f022 0270 	bic.w	r2, r2, #112	; 0x70
 80028b2:	0412      	lsls	r2, r2, #16
 80028b4:	0c12      	lsrs	r2, r2, #16
 80028b6:	f442 4240 	orr.w	r2, r2, #49152	; 0xc000
 80028ba:	f042 0280 	orr.w	r2, r2, #128	; 0x80
 80028be:	f820 2023 	strh.w	r2, [r0, r3, lsl #2]
 80028c2:	f830 2023 	ldrh.w	r2, [r0, r3, lsl #2]
 80028c6:	f422 4280 	bic.w	r2, r2, #16384	; 0x4000
 80028ca:	f022 0270 	bic.w	r2, r2, #112	; 0x70
 80028ce:	e7dc      	b.n	800288a <USB_DeactivateEndpoint+0x3a>
 80028d0:	2a00      	cmp	r2, #0
 80028d2:	d14a      	bne.n	800296a <USB_DeactivateEndpoint+0x11a>
 80028d4:	f830 2023 	ldrh.w	r2, [r0, r3, lsl #2]
 80028d8:	0451      	lsls	r1, r2, #17
 80028da:	d50d      	bpl.n	80028f8 <USB_DeactivateEndpoint+0xa8>
 80028dc:	f830 2023 	ldrh.w	r2, [r0, r3, lsl #2]
 80028e0:	f422 42e0 	bic.w	r2, r2, #28672	; 0x7000
 80028e4:	f022 0270 	bic.w	r2, r2, #112	; 0x70
 80028e8:	0412      	lsls	r2, r2, #16
 80028ea:	0c12      	lsrs	r2, r2, #16
 80028ec:	f442 4240 	orr.w	r2, r2, #49152	; 0xc000
 80028f0:	f042 0280 	orr.w	r2, r2, #128	; 0x80
 80028f4:	f820 2023 	strh.w	r2, [r0, r3, lsl #2]
 80028f8:	f830 2023 	ldrh.w	r2, [r0, r3, lsl #2]
 80028fc:	0652      	lsls	r2, r2, #25
 80028fe:	d50d      	bpl.n	800291c <USB_DeactivateEndpoint+0xcc>
 8002900:	f830 2023 	ldrh.w	r2, [r0, r3, lsl #2]
 8002904:	f422 42e0 	bic.w	r2, r2, #28672	; 0x7000
 8002908:	f022 0270 	bic.w	r2, r2, #112	; 0x70
 800290c:	0412      	lsls	r2, r2, #16
 800290e:	0c12      	lsrs	r2, r2, #16
 8002910:	f442 4200 	orr.w	r2, r2, #32768	; 0x8000
 8002914:	f042 02c0 	orr.w	r2, r2, #192	; 0xc0
 8002918:	f820 2023 	strh.w	r2, [r0, r3, lsl #2]
 800291c:	f830 2023 	ldrh.w	r2, [r0, r3, lsl #2]
 8002920:	f422 42e0 	bic.w	r2, r2, #28672	; 0x7000
 8002924:	f022 0270 	bic.w	r2, r2, #112	; 0x70
 8002928:	0412      	lsls	r2, r2, #16
 800292a:	0c12      	lsrs	r2, r2, #16
 800292c:	f442 4200 	orr.w	r2, r2, #32768	; 0x8000
 8002930:	f042 02c0 	orr.w	r2, r2, #192	; 0xc0
 8002934:	f820 2023 	strh.w	r2, [r0, r3, lsl #2]
 8002938:	f830 2023 	ldrh.w	r2, [r0, r3, lsl #2]
 800293c:	f422 4280 	bic.w	r2, r2, #16384	; 0x4000
 8002940:	f022 0270 	bic.w	r2, r2, #112	; 0x70
 8002944:	0412      	lsls	r2, r2, #16
 8002946:	0c12      	lsrs	r2, r2, #16
 8002948:	f248 0180 	movw	r1, #32896	; 0x8080
 800294c:	430a      	orrs	r2, r1
 800294e:	f820 2023 	strh.w	r2, [r0, r3, lsl #2]
 8002952:	f830 2023 	ldrh.w	r2, [r0, r3, lsl #2]
 8002956:	f422 42e0 	bic.w	r2, r2, #28672	; 0x7000
 800295a:	f022 0240 	bic.w	r2, r2, #64	; 0x40
 800295e:	0412      	lsls	r2, r2, #16
 8002960:	0c12      	lsrs	r2, r2, #16
 8002962:	4311      	orrs	r1, r2
 8002964:	f820 1023 	strh.w	r1, [r0, r3, lsl #2]
 8002968:	e797      	b.n	800289a <USB_DeactivateEndpoint+0x4a>
 800296a:	f830 2023 	ldrh.w	r2, [r0, r3, lsl #2]
 800296e:	0451      	lsls	r1, r2, #17
 8002970:	d50d      	bpl.n	800298e <USB_DeactivateEndpoint+0x13e>
 8002972:	f830 2023 	ldrh.w	r2, [r0, r3, lsl #2]
 8002976:	f422 42e0 	bic.w	r2, r2, #28672	; 0x7000
 800297a:	f022 0270 	bic.w	r2, r2, #112	; 0x70
 800297e:	0412      	lsls	r2, r2, #16
 8002980:	0c12      	lsrs	r2, r2, #16
 8002982:	f442 4240 	orr.w	r2, r2, #49152	; 0xc000
 8002986:	f042 0280 	orr.w	r2, r2, #128	; 0x80
 800298a:	f820 2023 	strh.w	r2, [r0, r3, lsl #2]
 800298e:	f830 2023 	ldrh.w	r2, [r0, r3, lsl #2]
 8002992:	0652      	lsls	r2, r2, #25
 8002994:	d50d      	bpl.n	80029b2 <USB_DeactivateEndpoint+0x162>
 8002996:	f830 2023 	ldrh.w	r2, [r0, r3, lsl #2]
 800299a:	f422 42e0 	bic.w	r2, r2, #28672	; 0x7000
 800299e:	f022 0270 	bic.w	r2, r2, #112	; 0x70
 80029a2:	0412      	lsls	r2, r2, #16
 80029a4:	0c12      	lsrs	r2, r2, #16
 80029a6:	f442 4200 	orr.w	r2, r2, #32768	; 0x8000
 80029aa:	f042 02c0 	orr.w	r2, r2, #192	; 0xc0
 80029ae:	f820 2023 	strh.w	r2, [r0, r3, lsl #2]
 80029b2:	f830 2023 	ldrh.w	r2, [r0, r3, lsl #2]
 80029b6:	f422 42e0 	bic.w	r2, r2, #28672	; 0x7000
 80029ba:	f022 0270 	bic.w	r2, r2, #112	; 0x70
 80029be:	0412      	lsls	r2, r2, #16
 80029c0:	0c12      	lsrs	r2, r2, #16
 80029c2:	f442 4240 	orr.w	r2, r2, #49152	; 0xc000
 80029c6:	f042 0280 	orr.w	r2, r2, #128	; 0x80
 80029ca:	f820 2023 	strh.w	r2, [r0, r3, lsl #2]
 80029ce:	f830 2023 	ldrh.w	r2, [r0, r3, lsl #2]
 80029d2:	f422 42e0 	bic.w	r2, r2, #28672	; 0x7000
 80029d6:	f022 0240 	bic.w	r2, r2, #64	; 0x40
 80029da:	0412      	lsls	r2, r2, #16
 80029dc:	0c12      	lsrs	r2, r2, #16
 80029de:	f248 0180 	movw	r1, #32896	; 0x8080
 80029e2:	430a      	orrs	r2, r1
 80029e4:	f820 2023 	strh.w	r2, [r0, r3, lsl #2]
 80029e8:	f830 2023 	ldrh.w	r2, [r0, r3, lsl #2]
 80029ec:	f422 4280 	bic.w	r2, r2, #16384	; 0x4000
 80029f0:	f022 0270 	bic.w	r2, r2, #112	; 0x70
 80029f4:	e7b3      	b.n	800295e <USB_DeactivateEndpoint+0x10e>

080029f6 <USB_EPSetStall>:
 80029f6:	784b      	ldrb	r3, [r1, #1]
 80029f8:	780a      	ldrb	r2, [r1, #0]
 80029fa:	b18b      	cbz	r3, 8002a20 <USB_EPSetStall+0x2a>
 80029fc:	f830 3022 	ldrh.w	r3, [r0, r2, lsl #2]
 8002a00:	f423 43e0 	bic.w	r3, r3, #28672	; 0x7000
 8002a04:	f023 0340 	bic.w	r3, r3, #64	; 0x40
 8002a08:	041b      	lsls	r3, r3, #16
 8002a0a:	0c1b      	lsrs	r3, r3, #16
 8002a0c:	f083 0310 	eor.w	r3, r3, #16
 8002a10:	f443 4300 	orr.w	r3, r3, #32768	; 0x8000
 8002a14:	f043 0380 	orr.w	r3, r3, #128	; 0x80
 8002a18:	f820 3022 	strh.w	r3, [r0, r2, lsl #2]
 8002a1c:	2000      	movs	r0, #0
 8002a1e:	4770      	bx	lr
 8002a20:	f830 3022 	ldrh.w	r3, [r0, r2, lsl #2]
 8002a24:	f423 4380 	bic.w	r3, r3, #16384	; 0x4000
 8002a28:	f023 0370 	bic.w	r3, r3, #112	; 0x70
 8002a2c:	041b      	lsls	r3, r3, #16
 8002a2e:	0c1b      	lsrs	r3, r3, #16
 8002a30:	f483 5380 	eor.w	r3, r3, #4096	; 0x1000
 8002a34:	e7ec      	b.n	8002a10 <USB_EPSetStall+0x1a>

08002a36 <USB_EPClearStall>:
 8002a36:	7b0b      	ldrb	r3, [r1, #12]
 8002a38:	bb3b      	cbnz	r3, 8002a8a <USB_EPClearStall+0x54>
 8002a3a:	784b      	ldrb	r3, [r1, #1]
 8002a3c:	780a      	ldrb	r2, [r1, #0]
 8002a3e:	b333      	cbz	r3, 8002a8e <USB_EPClearStall+0x58>
 8002a40:	f830 3022 	ldrh.w	r3, [r0, r2, lsl #2]
 8002a44:	065b      	lsls	r3, r3, #25
 8002a46:	d50d      	bpl.n	8002a64 <USB_EPClearStall+0x2e>
 8002a48:	f830 3022 	ldrh.w	r3, [r0, r2, lsl #2]
 8002a4c:	f423 43e0 	bic.w	r3, r3, #28672	; 0x7000
 8002a50:	f023 0370 	bic.w	r3, r3, #112	; 0x70
 8002a54:	041b      	lsls	r3, r3, #16
 8002a56:	0c1b      	lsrs	r3, r3, #16
 8002a58:	f443 4300 	orr.w	r3, r3, #32768	; 0x8000
 8002a5c:	f043 03c0 	orr.w	r3, r3, #192	; 0xc0
 8002a60:	f820 3022 	strh.w	r3, [r0, r2, lsl #2]
 8002a64:	78cb      	ldrb	r3, [r1, #3]
 8002a66:	2b01      	cmp	r3, #1
 8002a68:	d00f      	beq.n	8002a8a <USB_EPClearStall+0x54>
 8002a6a:	f830 3022 	ldrh.w	r3, [r0, r2, lsl #2]
 8002a6e:	f423 43e0 	bic.w	r3, r3, #28672	; 0x7000
 8002a72:	f023 0340 	bic.w	r3, r3, #64	; 0x40
 8002a76:	041b      	lsls	r3, r3, #16
 8002a78:	0c1b      	lsrs	r3, r3, #16
 8002a7a:	f083 0320 	eor.w	r3, r3, #32
 8002a7e:	f443 4300 	orr.w	r3, r3, #32768	; 0x8000
 8002a82:	f043 0380 	orr.w	r3, r3, #128	; 0x80
 8002a86:	f820 3022 	strh.w	r3, [r0, r2, lsl #2]
 8002a8a:	2000      	movs	r0, #0
 8002a8c:	4770      	bx	lr
 8002a8e:	f830 3022 	ldrh.w	r3, [r0, r2, lsl #2]
 8002a92:	045b      	lsls	r3, r3, #17
 8002a94:	d50d      	bpl.n	8002ab2 <USB_EPClearStall+0x7c>
 8002a96:	f830 3022 	ldrh.w	r3, [r0, r2, lsl #2]
 8002a9a:	f423 43e0 	bic.w	r3, r3, #28672	; 0x7000
 8002a9e:	f023 0370 	bic.w	r3, r3, #112	; 0x70
 8002aa2:	041b      	lsls	r3, r3, #16
 8002aa4:	0c1b      	lsrs	r3, r3, #16
 8002aa6:	f443 4340 	orr.w	r3, r3, #49152	; 0xc000
 8002aaa:	f043 0380 	orr.w	r3, r3, #128	; 0x80
 8002aae:	f820 3022 	strh.w	r3, [r0, r2, lsl #2]
 8002ab2:	f830 3022 	ldrh.w	r3, [r0, r2, lsl #2]
 8002ab6:	f423 4380 	bic.w	r3, r3, #16384	; 0x4000
 8002aba:	f023 0370 	bic.w	r3, r3, #112	; 0x70
 8002abe:	041b      	lsls	r3, r3, #16
 8002ac0:	0c1b      	lsrs	r3, r3, #16
 8002ac2:	f483 5340 	eor.w	r3, r3, #12288	; 0x3000
 8002ac6:	e7da      	b.n	8002a7e <USB_EPClearStall+0x48>

08002ac8 <USB_SetDevAddress>:
 8002ac8:	b911      	cbnz	r1, 8002ad0 <USB_SetDevAddress+0x8>
 8002aca:	2380      	movs	r3, #128	; 0x80
 8002acc:	f8a0 304c 	strh.w	r3, [r0, #76]	; 0x4c
 8002ad0:	2000      	movs	r0, #0
 8002ad2:	4770      	bx	lr

08002ad4 <USB_DevConnect>:
 8002ad4:	2000      	movs	r0, #0
 8002ad6:	4770      	bx	lr

08002ad8 <USB_ReadInterrupts>:
 8002ad8:	f8b0 0044 	ldrh.w	r0, [r0, #68]	; 0x44
 8002adc:	b280      	uxth	r0, r0
 8002ade:	4770      	bx	lr

08002ae0 <USB_WritePMA>:
 8002ae0:	eb00 0042 	add.w	r0, r0, r2, lsl #1
 8002ae4:	3301      	adds	r3, #1
 8002ae6:	f500 6080 	add.w	r0, r0, #1024	; 0x400
 8002aea:	085b      	lsrs	r3, r3, #1
 8002aec:	eb00 0383 	add.w	r3, r0, r3, lsl #2
 8002af0:	4283      	cmp	r3, r0
 8002af2:	d100      	bne.n	8002af6 <USB_WritePMA+0x16>
 8002af4:	4770      	bx	lr
 8002af6:	f831 2b02 	ldrh.w	r2, [r1], #2
 8002afa:	f820 2b04 	strh.w	r2, [r0], #4
 8002afe:	e7f7      	b.n	8002af0 <USB_WritePMA+0x10>

08002b00 <USB_EPStartXfer>:
 8002b00:	e92d 47f0 	stmdb	sp!, {r4, r5, r6, r7, r8, r9, sl, lr}
 8002b04:	784a      	ldrb	r2, [r1, #1]
 8002b06:	7b0e      	ldrb	r6, [r1, #12]
 8002b08:	2a01      	cmp	r2, #1
 8002b0a:	4605      	mov	r5, r0
 8002b0c:	460c      	mov	r4, r1
 8002b0e:	f040 811e 	bne.w	8002d4e <USB_EPStartXfer+0x24e>
 8002b12:	f8d1 a010 	ldr.w	sl, [r1, #16]
 8002b16:	698f      	ldr	r7, [r1, #24]
 8002b18:	6949      	ldr	r1, [r1, #20]
 8002b1a:	4557      	cmp	r7, sl
 8002b1c:	bf28      	it	cs
 8002b1e:	4657      	movcs	r7, sl
 8002b20:	bb16      	cbnz	r6, 8002b68 <USB_EPStartXfer+0x68>
 8002b22:	b2bf      	uxth	r7, r7
 8002b24:	88e2      	ldrh	r2, [r4, #6]
 8002b26:	463b      	mov	r3, r7
 8002b28:	f7ff ffda 	bl	8002ae0 <USB_WritePMA>
 8002b2c:	f8b5 2050 	ldrh.w	r2, [r5, #80]	; 0x50
 8002b30:	7823      	ldrb	r3, [r4, #0]
 8002b32:	f205 4104 	addw	r1, r5, #1028	; 0x404
 8002b36:	fa11 f282 	uxtah	r2, r1, r2
 8002b3a:	eb02 1203 	add.w	r2, r2, r3, lsl #4
 8002b3e:	8017      	strh	r7, [r2, #0]
 8002b40:	7822      	ldrb	r2, [r4, #0]
 8002b42:	f835 3022 	ldrh.w	r3, [r5, r2, lsl #2]
 8002b46:	f423 43e0 	bic.w	r3, r3, #28672	; 0x7000
 8002b4a:	f023 0340 	bic.w	r3, r3, #64	; 0x40
 8002b4e:	041b      	lsls	r3, r3, #16
 8002b50:	0c1b      	lsrs	r3, r3, #16
 8002b52:	f083 0330 	eor.w	r3, r3, #48	; 0x30
 8002b56:	f443 4300 	orr.w	r3, r3, #32768	; 0x8000
 8002b5a:	f043 0380 	orr.w	r3, r3, #128	; 0x80
 8002b5e:	f825 3022 	strh.w	r3, [r5, r2, lsl #2]
 8002b62:	2000      	movs	r0, #0
 8002b64:	e8bd 87f0 	ldmia.w	sp!, {r4, r5, r6, r7, r8, r9, sl, pc}
 8002b68:	78e3      	ldrb	r3, [r4, #3]
 8002b6a:	f894 e000 	ldrb.w	lr, [r4]
 8002b6e:	6a26      	ldr	r6, [r4, #32]
 8002b70:	2b02      	cmp	r3, #2
 8002b72:	ea4f 1c0e 	mov.w	ip, lr, lsl #4
 8002b76:	f040 80d3 	bne.w	8002d20 <USB_EPStartXfer+0x220>
 8002b7a:	45b2      	cmp	sl, r6
 8002b7c:	f830 202e 	ldrh.w	r2, [r0, lr, lsl #2]
 8002b80:	f080 80b7 	bcs.w	8002cf2 <USB_EPStartXfer+0x1f2>
 8002b84:	f422 42e0 	bic.w	r2, r2, #28672	; 0x7000
 8002b88:	f022 0270 	bic.w	r2, r2, #112	; 0x70
 8002b8c:	0412      	lsls	r2, r2, #16
 8002b8e:	0c12      	lsrs	r2, r2, #16
 8002b90:	f442 4201 	orr.w	r2, r2, #33024	; 0x8100
 8002b94:	f042 0280 	orr.w	r2, r2, #128	; 0x80
 8002b98:	f820 202e 	strh.w	r2, [r0, lr, lsl #2]
 8002b9c:	f830 802e 	ldrh.w	r8, [r0, lr, lsl #2]
 8002ba0:	f8b0 2050 	ldrh.w	r2, [r0, #80]	; 0x50
 8002ba4:	1bf6      	subs	r6, r6, r7
 8002ba6:	f018 0840 	ands.w	r8, r8, #64	; 0x40
 8002baa:	6226      	str	r6, [r4, #32]
 8002bac:	eb01 0907 	add.w	r9, r1, r7
 8002bb0:	b2bb      	uxth	r3, r7
 8002bb2:	d051      	beq.n	8002c58 <USB_EPStartXfer+0x158>
 8002bb4:	f200 4e0c 	addw	lr, r0, #1036	; 0x40c
 8002bb8:	fa1e f282 	uxtah	r2, lr, r2
 8002bbc:	f822 300c 	strh.w	r3, [r2, ip]
 8002bc0:	8962      	ldrh	r2, [r4, #10]
 8002bc2:	f7ff ff8d 	bl	8002ae0 <USB_WritePMA>
 8002bc6:	45b2      	cmp	sl, r6
 8002bc8:	7862      	ldrb	r2, [r4, #1]
 8002bca:	f8c4 9014 	str.w	r9, [r4, #20]
 8002bce:	bf36      	itet	cc
 8002bd0:	1bf3      	subcc	r3, r6, r7
 8002bd2:	2300      	movcs	r3, #0
 8002bd4:	463e      	movcc	r6, r7
 8002bd6:	6223      	str	r3, [r4, #32]
 8002bd8:	b2b3      	uxth	r3, r6
 8002bda:	bb82      	cbnz	r2, 8002c3e <USB_EPStartXfer+0x13e>
 8002bdc:	f8b5 2050 	ldrh.w	r2, [r5, #80]	; 0x50
 8002be0:	7821      	ldrb	r1, [r4, #0]
 8002be2:	f205 4004 	addw	r0, r5, #1028	; 0x404
 8002be6:	fa10 f282 	uxtah	r2, r0, r2
 8002bea:	eb02 1201 	add.w	r2, r2, r1, lsl #4
 8002bee:	2e3e      	cmp	r6, #62	; 0x3e
 8002bf0:	8811      	ldrh	r1, [r2, #0]
 8002bf2:	f3c1 0109 	ubfx	r1, r1, #0, #10
 8002bf6:	8011      	strh	r1, [r2, #0]
 8002bf8:	d914      	bls.n	8002c24 <USB_EPStartXfer+0x124>
 8002bfa:	8811      	ldrh	r1, [r2, #0]
 8002bfc:	0970      	lsrs	r0, r6, #5
 8002bfe:	06f6      	lsls	r6, r6, #27
 8002c00:	bf08      	it	eq
 8002c02:	f100 30ff 	addeq.w	r0, r0, #4294967295
 8002c06:	b289      	uxth	r1, r1
 8002c08:	ea41 2180 	orr.w	r1, r1, r0, lsl #10
 8002c0c:	ea6f 4141 	mvn.w	r1, r1, lsl #17
 8002c10:	ea6f 4151 	mvn.w	r1, r1, lsr #17
 8002c14:	b289      	uxth	r1, r1
 8002c16:	8011      	strh	r1, [r2, #0]
 8002c18:	8922      	ldrh	r2, [r4, #8]
 8002c1a:	4649      	mov	r1, r9
 8002c1c:	4628      	mov	r0, r5
 8002c1e:	f7ff ff5f 	bl	8002ae0 <USB_WritePMA>
 8002c22:	e78d      	b.n	8002b40 <USB_EPStartXfer+0x40>
 8002c24:	b90e      	cbnz	r6, 8002c2a <USB_EPStartXfer+0x12a>
 8002c26:	8811      	ldrh	r1, [r2, #0]
 8002c28:	e7f0      	b.n	8002c0c <USB_EPStartXfer+0x10c>
 8002c2a:	07f1      	lsls	r1, r6, #31
 8002c2c:	8811      	ldrh	r1, [r2, #0]
 8002c2e:	ea4f 0056 	mov.w	r0, r6, lsr #1
 8002c32:	bf48      	it	mi
 8002c34:	3001      	addmi	r0, #1
 8002c36:	b289      	uxth	r1, r1
 8002c38:	ea41 2180 	orr.w	r1, r1, r0, lsl #10
 8002c3c:	e7ea      	b.n	8002c14 <USB_EPStartXfer+0x114>
 8002c3e:	2a01      	cmp	r2, #1
 8002c40:	d1ea      	bne.n	8002c18 <USB_EPStartXfer+0x118>
 8002c42:	f8b5 2050 	ldrh.w	r2, [r5, #80]	; 0x50
 8002c46:	7821      	ldrb	r1, [r4, #0]
 8002c48:	f205 4004 	addw	r0, r5, #1028	; 0x404
 8002c4c:	fa10 f282 	uxtah	r2, r0, r2
 8002c50:	eb02 1201 	add.w	r2, r2, r1, lsl #4
 8002c54:	8013      	strh	r3, [r2, #0]
 8002c56:	e7df      	b.n	8002c18 <USB_EPStartXfer+0x118>
 8002c58:	f200 4e04 	addw	lr, r0, #1028	; 0x404
 8002c5c:	fa1e f282 	uxtah	r2, lr, r2
 8002c60:	f822 300c 	strh.w	r3, [r2, ip]
 8002c64:	8922      	ldrh	r2, [r4, #8]
 8002c66:	f7ff ff3b 	bl	8002ae0 <USB_WritePMA>
 8002c6a:	45b2      	cmp	sl, r6
 8002c6c:	7862      	ldrb	r2, [r4, #1]
 8002c6e:	f8c4 9014 	str.w	r9, [r4, #20]
 8002c72:	bf36      	itet	cc
 8002c74:	1bf3      	subcc	r3, r6, r7
 8002c76:	4643      	movcs	r3, r8
 8002c78:	463e      	movcc	r6, r7
 8002c7a:	6223      	str	r3, [r4, #32]
 8002c7c:	b2b3      	uxth	r3, r6
 8002c7e:	bb5a      	cbnz	r2, 8002cd8 <USB_EPStartXfer+0x1d8>
 8002c80:	f8b5 2050 	ldrh.w	r2, [r5, #80]	; 0x50
 8002c84:	7821      	ldrb	r1, [r4, #0]
 8002c86:	f205 400c 	addw	r0, r5, #1036	; 0x40c
 8002c8a:	fa10 f282 	uxtah	r2, r0, r2
 8002c8e:	eb02 1201 	add.w	r2, r2, r1, lsl #4
 8002c92:	2e3e      	cmp	r6, #62	; 0x3e
 8002c94:	8811      	ldrh	r1, [r2, #0]
 8002c96:	f3c1 0109 	ubfx	r1, r1, #0, #10
 8002c9a:	8011      	strh	r1, [r2, #0]
 8002c9c:	d910      	bls.n	8002cc0 <USB_EPStartXfer+0x1c0>
 8002c9e:	8811      	ldrh	r1, [r2, #0]
 8002ca0:	0970      	lsrs	r0, r6, #5
 8002ca2:	06f7      	lsls	r7, r6, #27
 8002ca4:	bf08      	it	eq
 8002ca6:	f100 30ff 	addeq.w	r0, r0, #4294967295
 8002caa:	b289      	uxth	r1, r1
 8002cac:	ea41 2180 	orr.w	r1, r1, r0, lsl #10
 8002cb0:	ea6f 4141 	mvn.w	r1, r1, lsl #17
 8002cb4:	ea6f 4151 	mvn.w	r1, r1, lsr #17
 8002cb8:	b289      	uxth	r1, r1
 8002cba:	8011      	strh	r1, [r2, #0]
 8002cbc:	8962      	ldrh	r2, [r4, #10]
 8002cbe:	e7ac      	b.n	8002c1a <USB_EPStartXfer+0x11a>
 8002cc0:	b90e      	cbnz	r6, 8002cc6 <USB_EPStartXfer+0x1c6>
 8002cc2:	8811      	ldrh	r1, [r2, #0]
 8002cc4:	e7f4      	b.n	8002cb0 <USB_EPStartXfer+0x1b0>
 8002cc6:	8811      	ldrh	r1, [r2, #0]
 8002cc8:	0870      	lsrs	r0, r6, #1
 8002cca:	07f6      	lsls	r6, r6, #31
 8002ccc:	bf48      	it	mi
 8002cce:	3001      	addmi	r0, #1
 8002cd0:	b289      	uxth	r1, r1
 8002cd2:	ea41 2180 	orr.w	r1, r1, r0, lsl #10
 8002cd6:	e7ef      	b.n	8002cb8 <USB_EPStartXfer+0x1b8>
 8002cd8:	2a01      	cmp	r2, #1
 8002cda:	d1ef      	bne.n	8002cbc <USB_EPStartXfer+0x1bc>
 8002cdc:	f8b5 2050 	ldrh.w	r2, [r5, #80]	; 0x50
 8002ce0:	7821      	ldrb	r1, [r4, #0]
 8002ce2:	f205 400c 	addw	r0, r5, #1036	; 0x40c
 8002ce6:	fa10 f282 	uxtah	r2, r0, r2
 8002cea:	eb02 1201 	add.w	r2, r2, r1, lsl #4
 8002cee:	8013      	strh	r3, [r2, #0]
 8002cf0:	e7e4      	b.n	8002cbc <USB_EPStartXfer+0x1bc>
 8002cf2:	f422 42e2 	bic.w	r2, r2, #28928	; 0x7100
 8002cf6:	f022 0270 	bic.w	r2, r2, #112	; 0x70
 8002cfa:	0412      	lsls	r2, r2, #16
 8002cfc:	0c12      	lsrs	r2, r2, #16
 8002cfe:	f442 4200 	orr.w	r2, r2, #32768	; 0x8000
 8002d02:	f042 0280 	orr.w	r2, r2, #128	; 0x80
 8002d06:	f820 202e 	strh.w	r2, [r0, lr, lsl #2]
 8002d0a:	f8b0 2050 	ldrh.w	r2, [r0, #80]	; 0x50
 8002d0e:	f200 4304 	addw	r3, r0, #1028	; 0x404
 8002d12:	fa13 f282 	uxtah	r2, r3, r2
 8002d16:	b2b3      	uxth	r3, r6
 8002d18:	f822 300c 	strh.w	r3, [r2, ip]
 8002d1c:	8922      	ldrh	r2, [r4, #8]
 8002d1e:	e77e      	b.n	8002c1e <USB_EPStartXfer+0x11e>
 8002d20:	f830 202e 	ldrh.w	r2, [r0, lr, lsl #2]
 8002d24:	1bf6      	subs	r6, r6, r7
 8002d26:	f012 0f40 	tst.w	r2, #64	; 0x40
 8002d2a:	6226      	str	r6, [r4, #32]
 8002d2c:	f8b0 2050 	ldrh.w	r2, [r0, #80]	; 0x50
 8002d30:	b2bb      	uxth	r3, r7
 8002d32:	d007      	beq.n	8002d44 <USB_EPStartXfer+0x244>
 8002d34:	f200 460c 	addw	r6, r0, #1036	; 0x40c
 8002d38:	fa16 f282 	uxtah	r2, r6, r2
 8002d3c:	f822 300c 	strh.w	r3, [r2, ip]
 8002d40:	8962      	ldrh	r2, [r4, #10]
 8002d42:	e76c      	b.n	8002c1e <USB_EPStartXfer+0x11e>
 8002d44:	f200 4604 	addw	r6, r0, #1028	; 0x404
 8002d48:	fa16 f282 	uxtah	r2, r6, r2
 8002d4c:	e7e4      	b.n	8002d18 <USB_EPStartXfer+0x218>
 8002d4e:	2e00      	cmp	r6, #0
 8002d50:	d13c      	bne.n	8002dcc <USB_EPStartXfer+0x2cc>
 8002d52:	698a      	ldr	r2, [r1, #24]
 8002d54:	690b      	ldr	r3, [r1, #16]
 8002d56:	429a      	cmp	r2, r3
 8002d58:	bf84      	itt	hi
 8002d5a:	1ad6      	subhi	r6, r2, r3
 8002d5c:	461a      	movhi	r2, r3
 8002d5e:	f8b0 3050 	ldrh.w	r3, [r0, #80]	; 0x50
 8002d62:	618e      	str	r6, [r1, #24]
 8002d64:	f200 400c 	addw	r0, r0, #1036	; 0x40c
 8002d68:	7809      	ldrb	r1, [r1, #0]
 8002d6a:	fa10 f383 	uxtah	r3, r0, r3
 8002d6e:	eb03 1301 	add.w	r3, r3, r1, lsl #4
 8002d72:	2a3e      	cmp	r2, #62	; 0x3e
 8002d74:	8819      	ldrh	r1, [r3, #0]
 8002d76:	f3c1 0109 	ubfx	r1, r1, #0, #10
 8002d7a:	8019      	strh	r1, [r3, #0]
 8002d7c:	d91a      	bls.n	8002db4 <USB_EPStartXfer+0x2b4>
 8002d7e:	0951      	lsrs	r1, r2, #5
 8002d80:	06d0      	lsls	r0, r2, #27
 8002d82:	881a      	ldrh	r2, [r3, #0]
 8002d84:	bf08      	it	eq
 8002d86:	f101 31ff 	addeq.w	r1, r1, #4294967295
 8002d8a:	b292      	uxth	r2, r2
 8002d8c:	ea42 2281 	orr.w	r2, r2, r1, lsl #10
 8002d90:	ea6f 4242 	mvn.w	r2, r2, lsl #17
 8002d94:	ea6f 4252 	mvn.w	r2, r2, lsr #17
 8002d98:	b292      	uxth	r2, r2
 8002d9a:	801a      	strh	r2, [r3, #0]
 8002d9c:	7822      	ldrb	r2, [r4, #0]
 8002d9e:	f835 3022 	ldrh.w	r3, [r5, r2, lsl #2]
 8002da2:	f423 4380 	bic.w	r3, r3, #16384	; 0x4000
 8002da6:	f023 0370 	bic.w	r3, r3, #112	; 0x70
 8002daa:	041b      	lsls	r3, r3, #16
 8002dac:	0c1b      	lsrs	r3, r3, #16
 8002dae:	f483 5340 	eor.w	r3, r3, #12288	; 0x3000
 8002db2:	e6d0      	b.n	8002b56 <USB_EPStartXfer+0x56>
 8002db4:	b90a      	cbnz	r2, 8002dba <USB_EPStartXfer+0x2ba>
 8002db6:	881a      	ldrh	r2, [r3, #0]
 8002db8:	e7ea      	b.n	8002d90 <USB_EPStartXfer+0x290>
 8002dba:	0851      	lsrs	r1, r2, #1
 8002dbc:	07d2      	lsls	r2, r2, #31
 8002dbe:	881a      	ldrh	r2, [r3, #0]
 8002dc0:	bf48      	it	mi
 8002dc2:	3101      	addmi	r1, #1
 8002dc4:	b292      	uxth	r2, r2
 8002dc6:	ea42 2281 	orr.w	r2, r2, r1, lsl #10
 8002dca:	e7e5      	b.n	8002d98 <USB_EPStartXfer+0x298>
 8002dcc:	78cb      	ldrb	r3, [r1, #3]
 8002dce:	2b02      	cmp	r3, #2
 8002dd0:	d174      	bne.n	8002ebc <USB_EPStartXfer+0x3bc>
 8002dd2:	2a00      	cmp	r2, #0
 8002dd4:	d14c      	bne.n	8002e70 <USB_EPStartXfer+0x370>
 8002dd6:	f8b0 2050 	ldrh.w	r2, [r0, #80]	; 0x50
 8002dda:	780b      	ldrb	r3, [r1, #0]
 8002ddc:	f200 4104 	addw	r1, r0, #1028	; 0x404
 8002de0:	fa11 f282 	uxtah	r2, r1, r2
 8002de4:	eb02 1203 	add.w	r2, r2, r3, lsl #4
 8002de8:	8813      	ldrh	r3, [r2, #0]
 8002dea:	f3c3 0309 	ubfx	r3, r3, #0, #10
 8002dee:	8013      	strh	r3, [r2, #0]
 8002df0:	6923      	ldr	r3, [r4, #16]
 8002df2:	2b3e      	cmp	r3, #62	; 0x3e
 8002df4:	d921      	bls.n	8002e3a <USB_EPStartXfer+0x33a>
 8002df6:	8811      	ldrh	r1, [r2, #0]
 8002df8:	0958      	lsrs	r0, r3, #5
 8002dfa:	06df      	lsls	r7, r3, #27
 8002dfc:	bf08      	it	eq
 8002dfe:	f100 30ff 	addeq.w	r0, r0, #4294967295
 8002e02:	b289      	uxth	r1, r1
 8002e04:	ea41 2180 	orr.w	r1, r1, r0, lsl #10
 8002e08:	ea6f 4141 	mvn.w	r1, r1, lsl #17
 8002e0c:	ea6f 4151 	mvn.w	r1, r1, lsr #17
 8002e10:	b289      	uxth	r1, r1
 8002e12:	8011      	strh	r1, [r2, #0]
 8002e14:	f8b5 2050 	ldrh.w	r2, [r5, #80]	; 0x50
 8002e18:	7821      	ldrb	r1, [r4, #0]
 8002e1a:	f205 400c 	addw	r0, r5, #1036	; 0x40c
 8002e1e:	fa10 f282 	uxtah	r2, r0, r2
 8002e22:	eb02 1201 	add.w	r2, r2, r1, lsl #4
 8002e26:	2b3e      	cmp	r3, #62	; 0x3e
 8002e28:	8811      	ldrh	r1, [r2, #0]
 8002e2a:	f3c1 0109 	ubfx	r1, r1, #0, #10
 8002e2e:	8011      	strh	r1, [r2, #0]
 8002e30:	d80f      	bhi.n	8002e52 <USB_EPStartXfer+0x352>
 8002e32:	2b00      	cmp	r3, #0
 8002e34:	d139      	bne.n	8002eaa <USB_EPStartXfer+0x3aa>
 8002e36:	8813      	ldrh	r3, [r2, #0]
 8002e38:	e014      	b.n	8002e64 <USB_EPStartXfer+0x364>
 8002e3a:	b90b      	cbnz	r3, 8002e40 <USB_EPStartXfer+0x340>
 8002e3c:	8811      	ldrh	r1, [r2, #0]
 8002e3e:	e7e3      	b.n	8002e08 <USB_EPStartXfer+0x308>
 8002e40:	8811      	ldrh	r1, [r2, #0]
 8002e42:	0858      	lsrs	r0, r3, #1
 8002e44:	07de      	lsls	r6, r3, #31
 8002e46:	bf48      	it	mi
 8002e48:	3001      	addmi	r0, #1
 8002e4a:	b289      	uxth	r1, r1
 8002e4c:	ea41 2180 	orr.w	r1, r1, r0, lsl #10
 8002e50:	e7de      	b.n	8002e10 <USB_EPStartXfer+0x310>
 8002e52:	0959      	lsrs	r1, r3, #5
 8002e54:	06d8      	lsls	r0, r3, #27
 8002e56:	8813      	ldrh	r3, [r2, #0]
 8002e58:	bf08      	it	eq
 8002e5a:	f101 31ff 	addeq.w	r1, r1, #4294967295
 8002e5e:	b29b      	uxth	r3, r3
 8002e60:	ea43 2381 	orr.w	r3, r3, r1, lsl #10
 8002e64:	ea6f 4343 	mvn.w	r3, r3, lsl #17
 8002e68:	ea6f 4353 	mvn.w	r3, r3, lsr #17
 8002e6c:	b29b      	uxth	r3, r3
 8002e6e:	8013      	strh	r3, [r2, #0]
 8002e70:	69e3      	ldr	r3, [r4, #28]
 8002e72:	2b00      	cmp	r3, #0
 8002e74:	d092      	beq.n	8002d9c <USB_EPStartXfer+0x29c>
 8002e76:	7822      	ldrb	r2, [r4, #0]
 8002e78:	f835 1022 	ldrh.w	r1, [r5, r2, lsl #2]
 8002e7c:	f244 0340 	movw	r3, #16448	; 0x4040
 8002e80:	ea03 0001 	and.w	r0, r3, r1
 8002e84:	438b      	bics	r3, r1
 8002e86:	d001      	beq.n	8002e8c <USB_EPStartXfer+0x38c>
 8002e88:	2800      	cmp	r0, #0
 8002e8a:	d187      	bne.n	8002d9c <USB_EPStartXfer+0x29c>
 8002e8c:	f835 3022 	ldrh.w	r3, [r5, r2, lsl #2]
 8002e90:	f423 43e0 	bic.w	r3, r3, #28672	; 0x7000
 8002e94:	f023 0370 	bic.w	r3, r3, #112	; 0x70
 8002e98:	041b      	lsls	r3, r3, #16
 8002e9a:	0c1b      	lsrs	r3, r3, #16
 8002e9c:	f443 4300 	orr.w	r3, r3, #32768	; 0x8000
 8002ea0:	f043 03c0 	orr.w	r3, r3, #192	; 0xc0
 8002ea4:	f825 3022 	strh.w	r3, [r5, r2, lsl #2]
 8002ea8:	e778      	b.n	8002d9c <USB_EPStartXfer+0x29c>
 8002eaa:	0859      	lsrs	r1, r3, #1
 8002eac:	07db      	lsls	r3, r3, #31
 8002eae:	8813      	ldrh	r3, [r2, #0]
 8002eb0:	bf48      	it	mi
 8002eb2:	3101      	addmi	r1, #1
 8002eb4:	b29b      	uxth	r3, r3
 8002eb6:	ea43 2381 	orr.w	r3, r3, r1, lsl #10
 8002eba:	e7d7      	b.n	8002e6c <USB_EPStartXfer+0x36c>
 8002ebc:	2b01      	cmp	r3, #1
 8002ebe:	d15f      	bne.n	8002f80 <USB_EPStartXfer+0x480>
 8002ec0:	698b      	ldr	r3, [r1, #24]
 8002ec2:	6909      	ldr	r1, [r1, #16]
 8002ec4:	428b      	cmp	r3, r1
 8002ec6:	bf8a      	itet	hi
 8002ec8:	1a58      	subhi	r0, r3, r1
 8002eca:	2000      	movls	r0, #0
 8002ecc:	460b      	movhi	r3, r1
 8002ece:	61a0      	str	r0, [r4, #24]
 8002ed0:	2a00      	cmp	r2, #0
 8002ed2:	f47f af63 	bne.w	8002d9c <USB_EPStartXfer+0x29c>
 8002ed6:	f8b5 2050 	ldrh.w	r2, [r5, #80]	; 0x50
 8002eda:	7821      	ldrb	r1, [r4, #0]
 8002edc:	f205 4004 	addw	r0, r5, #1028	; 0x404
 8002ee0:	fa10 f282 	uxtah	r2, r0, r2
 8002ee4:	eb02 1201 	add.w	r2, r2, r1, lsl #4
 8002ee8:	2b3e      	cmp	r3, #62	; 0x3e
 8002eea:	8811      	ldrh	r1, [r2, #0]
 8002eec:	f3c1 0109 	ubfx	r1, r1, #0, #10
 8002ef0:	8011      	strh	r1, [r2, #0]
 8002ef2:	d920      	bls.n	8002f36 <USB_EPStartXfer+0x436>
 8002ef4:	8811      	ldrh	r1, [r2, #0]
 8002ef6:	0958      	lsrs	r0, r3, #5
 8002ef8:	06df      	lsls	r7, r3, #27
 8002efa:	bf08      	it	eq
 8002efc:	f100 30ff 	addeq.w	r0, r0, #4294967295
 8002f00:	b289      	uxth	r1, r1
 8002f02:	ea41 2180 	orr.w	r1, r1, r0, lsl #10
 8002f06:	ea6f 4141 	mvn.w	r1, r1, lsl #17
 8002f0a:	ea6f 4151 	mvn.w	r1, r1, lsr #17
 8002f0e:	b289      	uxth	r1, r1
 8002f10:	8011      	strh	r1, [r2, #0]
 8002f12:	f8b5 2050 	ldrh.w	r2, [r5, #80]	; 0x50
 8002f16:	7821      	ldrb	r1, [r4, #0]
 8002f18:	f205 400c 	addw	r0, r5, #1036	; 0x40c
 8002f1c:	fa10 f282 	uxtah	r2, r0, r2
 8002f20:	eb02 1201 	add.w	r2, r2, r1, lsl #4
 8002f24:	2b3e      	cmp	r3, #62	; 0x3e
 8002f26:	8811      	ldrh	r1, [r2, #0]
 8002f28:	f3c1 0109 	ubfx	r1, r1, #0, #10
 8002f2c:	8011      	strh	r1, [r2, #0]
 8002f2e:	d80e      	bhi.n	8002f4e <USB_EPStartXfer+0x44e>
 8002f30:	b9eb      	cbnz	r3, 8002f6e <USB_EPStartXfer+0x46e>
 8002f32:	8813      	ldrh	r3, [r2, #0]
 8002f34:	e014      	b.n	8002f60 <USB_EPStartXfer+0x460>
 8002f36:	b90b      	cbnz	r3, 8002f3c <USB_EPStartXfer+0x43c>
 8002f38:	8811      	ldrh	r1, [r2, #0]
 8002f3a:	e7e4      	b.n	8002f06 <USB_EPStartXfer+0x406>
 8002f3c:	8811      	ldrh	r1, [r2, #0]
 8002f3e:	0858      	lsrs	r0, r3, #1
 8002f40:	07de      	lsls	r6, r3, #31
 8002f42:	bf48      	it	mi
 8002f44:	3001      	addmi	r0, #1
 8002f46:	b289      	uxth	r1, r1
 8002f48:	ea41 2180 	orr.w	r1, r1, r0, lsl #10
 8002f4c:	e7df      	b.n	8002f0e <USB_EPStartXfer+0x40e>
 8002f4e:	0959      	lsrs	r1, r3, #5
 8002f50:	06d8      	lsls	r0, r3, #27
 8002f52:	8813      	ldrh	r3, [r2, #0]
 8002f54:	bf08      	it	eq
 8002f56:	f101 31ff 	addeq.w	r1, r1, #4294967295
 8002f5a:	b29b      	uxth	r3, r3
 8002f5c:	ea43 2381 	orr.w	r3, r3, r1, lsl #10
 8002f60:	ea6f 4343 	mvn.w	r3, r3, lsl #17
 8002f64:	ea6f 4353 	mvn.w	r3, r3, lsr #17
 8002f68:	b29b      	uxth	r3, r3
 8002f6a:	8013      	strh	r3, [r2, #0]
 8002f6c:	e716      	b.n	8002d9c <USB_EPStartXfer+0x29c>
 8002f6e:	0859      	lsrs	r1, r3, #1
 8002f70:	07db      	lsls	r3, r3, #31
 8002f72:	8813      	ldrh	r3, [r2, #0]
 8002f74:	bf48      	it	mi
 8002f76:	3101      	addmi	r1, #1
 8002f78:	b29b      	uxth	r3, r3
 8002f7a:	ea43 2381 	orr.w	r3, r3, r1, lsl #10
 8002f7e:	e7f3      	b.n	8002f68 <USB_EPStartXfer+0x468>
 8002f80:	2001      	movs	r0, #1
 8002f82:	e5ef      	b.n	8002b64 <USB_EPStartXfer+0x64>

08002f84 <USB_ReadPMA>:
 8002f84:	eb00 0042 	add.w	r0, r0, r2, lsl #1
 8002f88:	b5f0      	push	{r4, r5, r6, r7, lr}
 8002f8a:	f500 6080 	add.w	r0, r0, #1024	; 0x400
 8002f8e:	085d      	lsrs	r5, r3, #1
 8002f90:	460c      	mov	r4, r1
 8002f92:	4607      	mov	r7, r0
 8002f94:	462e      	mov	r6, r5
 8002f96:	3402      	adds	r4, #2
 8002f98:	b936      	cbnz	r6, 8002fa8 <USB_ReadPMA+0x24>
 8002f9a:	07db      	lsls	r3, r3, #31
 8002f9c:	bf44      	itt	mi
 8002f9e:	f830 3025 	ldrhmi.w	r3, [r0, r5, lsl #2]
 8002fa2:	f801 3015 	strbmi.w	r3, [r1, r5, lsl #1]
 8002fa6:	bdf0      	pop	{r4, r5, r6, r7, pc}
 8002fa8:	f837 2b04 	ldrh.w	r2, [r7], #4
 8002fac:	b292      	uxth	r2, r2
 8002fae:	f804 2c02 	strb.w	r2, [r4, #-2]
 8002fb2:	0a12      	lsrs	r2, r2, #8
 8002fb4:	f804 2c01 	strb.w	r2, [r4, #-1]
 8002fb8:	3e01      	subs	r6, #1
 8002fba:	e7ec      	b.n	8002f96 <USB_ReadPMA+0x12>

08002fbc <USBD_CDC_EP0_RxReady>:
 8002fbc:	f8d0 32bc 	ldr.w	r3, [r0, #700]	; 0x2bc
 8002fc0:	b510      	push	{r4, lr}
 8002fc2:	b16b      	cbz	r3, 8002fe0 <USBD_CDC_EP0_RxReady+0x24>
 8002fc4:	f8d0 42b8 	ldr.w	r4, [r0, #696]	; 0x2b8
 8002fc8:	f894 0200 	ldrb.w	r0, [r4, #512]	; 0x200
 8002fcc:	28ff      	cmp	r0, #255	; 0xff
 8002fce:	d007      	beq.n	8002fe0 <USBD_CDC_EP0_RxReady+0x24>
 8002fd0:	689b      	ldr	r3, [r3, #8]
 8002fd2:	f894 2201 	ldrb.w	r2, [r4, #513]	; 0x201
 8002fd6:	4621      	mov	r1, r4
 8002fd8:	4798      	blx	r3
 8002fda:	23ff      	movs	r3, #255	; 0xff
 8002fdc:	f884 3200 	strb.w	r3, [r4, #512]	; 0x200
 8002fe0:	2000      	movs	r0, #0
 8002fe2:	bd10      	pop	{r4, pc}

08002fe4 <USBD_CDC_GetFSCfgDesc>:
 8002fe4:	2343      	movs	r3, #67	; 0x43
 8002fe6:	8003      	strh	r3, [r0, #0]
 8002fe8:	4800      	ldr	r0, [pc, #0]	; (8002fec <USBD_CDC_GetFSCfgDesc+0x8>)
 8002fea:	4770      	bx	lr
 8002fec:	2000008c 	.word	0x2000008c

08002ff0 <USBD_CDC_GetHSCfgDesc>:
 8002ff0:	2343      	movs	r3, #67	; 0x43
 8002ff2:	8003      	strh	r3, [r0, #0]
 8002ff4:	4800      	ldr	r0, [pc, #0]	; (8002ff8 <USBD_CDC_GetHSCfgDesc+0x8>)
 8002ff6:	4770      	bx	lr
 8002ff8:	200000d0 	.word	0x200000d0

08002ffc <USBD_CDC_GetOtherSpeedCfgDesc>:
 8002ffc:	2343      	movs	r3, #67	; 0x43
 8002ffe:	8003      	strh	r3, [r0, #0]
 8003000:	4800      	ldr	r0, [pc, #0]	; (8003004 <USBD_CDC_GetOtherSpeedCfgDesc+0x8>)
 8003002:	4770      	bx	lr
 8003004:	20000120 	.word	0x20000120

08003008 <USBD_CDC_GetDeviceQualifierDescriptor>:
 8003008:	230a      	movs	r3, #10
 800300a:	8003      	strh	r3, [r0, #0]
 800300c:	4800      	ldr	r0, [pc, #0]	; (8003010 <USBD_CDC_GetDeviceQualifierDescriptor+0x8>)
 800300e:	4770      	bx	lr
 8003010:	20000114 	.word	0x20000114

08003014 <USBD_CDC_DataOut>:
 8003014:	b538      	push	{r3, r4, r5, lr}
 8003016:	4604      	mov	r4, r0
 8003018:	f8d0 52b8 	ldr.w	r5, [r0, #696]	; 0x2b8
 800301c:	f000 ff52 	bl	8003ec4 <USBD_LL_GetRxDataSize>
 8003020:	f8d4 32b8 	ldr.w	r3, [r4, #696]	; 0x2b8
 8003024:	f8c5 020c 	str.w	r0, [r5, #524]	; 0x20c
 8003028:	b14b      	cbz	r3, 800303e <USBD_CDC_DataOut+0x2a>
 800302a:	f8d4 32bc 	ldr.w	r3, [r4, #700]	; 0x2bc
 800302e:	f8d5 0204 	ldr.w	r0, [r5, #516]	; 0x204
 8003032:	68db      	ldr	r3, [r3, #12]
 8003034:	f505 7103 	add.w	r1, r5, #524	; 0x20c
 8003038:	4798      	blx	r3
 800303a:	2000      	movs	r0, #0
 800303c:	bd38      	pop	{r3, r4, r5, pc}
 800303e:	2002      	movs	r0, #2
 8003040:	e7fc      	b.n	800303c <USBD_CDC_DataOut+0x28>

08003042 <USBD_CDC_DataIn>:
 8003042:	b5f8      	push	{r3, r4, r5, r6, r7, lr}
 8003044:	f8d0 62b8 	ldr.w	r6, [r0, #696]	; 0x2b8
 8003048:	b1d6      	cbz	r6, 8003080 <USBD_CDC_DataIn+0x3e>
 800304a:	2414      	movs	r4, #20
 800304c:	fb04 0301 	mla	r3, r4, r1, r0
 8003050:	f8d0 52c0 	ldr.w	r5, [r0, #704]	; 0x2c0
 8003054:	69dc      	ldr	r4, [r3, #28]
 8003056:	b17c      	cbz	r4, 8003078 <USBD_CDC_DataIn+0x36>
 8003058:	2728      	movs	r7, #40	; 0x28
 800305a:	fb07 5201 	mla	r2, r7, r1, r5
 800305e:	6b92      	ldr	r2, [r2, #56]	; 0x38
 8003060:	fbb4 f5f2 	udiv	r5, r4, r2
 8003064:	fb02 4415 	mls	r4, r2, r5, r4
 8003068:	b934      	cbnz	r4, 8003078 <USBD_CDC_DataIn+0x36>
 800306a:	61dc      	str	r4, [r3, #28]
 800306c:	4622      	mov	r2, r4
 800306e:	4623      	mov	r3, r4
 8003070:	f000 ff16 	bl	8003ea0 <USBD_LL_Transmit>
 8003074:	4620      	mov	r0, r4
 8003076:	bdf8      	pop	{r3, r4, r5, r6, r7, pc}
 8003078:	2000      	movs	r0, #0
 800307a:	f8c6 0214 	str.w	r0, [r6, #532]	; 0x214
 800307e:	e7fa      	b.n	8003076 <USBD_CDC_DataIn+0x34>
 8003080:	2002      	movs	r0, #2
 8003082:	e7f8      	b.n	8003076 <USBD_CDC_DataIn+0x34>

08003084 <USBD_CDC_Setup>:
 8003084:	e92d 43f7 	stmdb	sp!, {r0, r1, r2, r4, r5, r6, r7, r8, r9, lr}
 8003088:	780a      	ldrb	r2, [r1, #0]
 800308a:	f8d0 72b8 	ldr.w	r7, [r0, #696]	; 0x2b8
 800308e:	f04f 0800 	mov.w	r8, #0
 8003092:	f012 0460 	ands.w	r4, r2, #96	; 0x60
 8003096:	4605      	mov	r5, r0
 8003098:	460e      	mov	r6, r1
 800309a:	f88d 8005 	strb.w	r8, [sp, #5]
 800309e:	f8ad 8006 	strh.w	r8, [sp, #6]
 80030a2:	d028      	beq.n	80030f6 <USBD_CDC_Setup+0x72>
 80030a4:	2c20      	cmp	r4, #32
 80030a6:	d142      	bne.n	800312e <USBD_CDC_Setup+0xaa>
 80030a8:	88cc      	ldrh	r4, [r1, #6]
 80030aa:	784b      	ldrb	r3, [r1, #1]
 80030ac:	b1e4      	cbz	r4, 80030e8 <USBD_CDC_Setup+0x64>
 80030ae:	0612      	lsls	r2, r2, #24
 80030b0:	d511      	bpl.n	80030d6 <USBD_CDC_Setup+0x52>
 80030b2:	f8d0 22bc 	ldr.w	r2, [r0, #700]	; 0x2bc
 80030b6:	4639      	mov	r1, r7
 80030b8:	f8d2 9008 	ldr.w	r9, [r2, #8]
 80030bc:	4618      	mov	r0, r3
 80030be:	4622      	mov	r2, r4
 80030c0:	47c8      	blx	r9
 80030c2:	88f2      	ldrh	r2, [r6, #6]
 80030c4:	4639      	mov	r1, r7
 80030c6:	4628      	mov	r0, r5
 80030c8:	f000 fc47 	bl	800395a <USBD_CtlSendData>
 80030cc:	4644      	mov	r4, r8
 80030ce:	4620      	mov	r0, r4
 80030d0:	b003      	add	sp, #12
 80030d2:	e8bd 83f0 	ldmia.w	sp!, {r4, r5, r6, r7, r8, r9, pc}
 80030d6:	f887 3200 	strb.w	r3, [r7, #512]	; 0x200
 80030da:	f887 4201 	strb.w	r4, [r7, #513]	; 0x201
 80030de:	4622      	mov	r2, r4
 80030e0:	4639      	mov	r1, r7
 80030e2:	f000 fc4f 	bl	8003984 <USBD_CtlPrepareRx>
 80030e6:	e7f1      	b.n	80030cc <USBD_CDC_Setup+0x48>
 80030e8:	f8d0 22bc 	ldr.w	r2, [r0, #700]	; 0x2bc
 80030ec:	4618      	mov	r0, r3
 80030ee:	6895      	ldr	r5, [r2, #8]
 80030f0:	4622      	mov	r2, r4
 80030f2:	47a8      	blx	r5
 80030f4:	e7eb      	b.n	80030ce <USBD_CDC_Setup+0x4a>
 80030f6:	784b      	ldrb	r3, [r1, #1]
 80030f8:	2b0a      	cmp	r3, #10
 80030fa:	d00c      	beq.n	8003116 <USBD_CDC_Setup+0x92>
 80030fc:	2b0b      	cmp	r3, #11
 80030fe:	d012      	beq.n	8003126 <USBD_CDC_Setup+0xa2>
 8003100:	b9ab      	cbnz	r3, 800312e <USBD_CDC_Setup+0xaa>
 8003102:	f890 329c 	ldrb.w	r3, [r0, #668]	; 0x29c
 8003106:	2b03      	cmp	r3, #3
 8003108:	d111      	bne.n	800312e <USBD_CDC_Setup+0xaa>
 800310a:	2202      	movs	r2, #2
 800310c:	f10d 0106 	add.w	r1, sp, #6
 8003110:	f000 fc23 	bl	800395a <USBD_CtlSendData>
 8003114:	e7db      	b.n	80030ce <USBD_CDC_Setup+0x4a>
 8003116:	f890 329c 	ldrb.w	r3, [r0, #668]	; 0x29c
 800311a:	2b03      	cmp	r3, #3
 800311c:	d107      	bne.n	800312e <USBD_CDC_Setup+0xaa>
 800311e:	2201      	movs	r2, #1
 8003120:	f10d 0105 	add.w	r1, sp, #5
 8003124:	e7f4      	b.n	8003110 <USBD_CDC_Setup+0x8c>
 8003126:	f890 329c 	ldrb.w	r3, [r0, #668]	; 0x29c
 800312a:	2b03      	cmp	r3, #3
 800312c:	d0cf      	beq.n	80030ce <USBD_CDC_Setup+0x4a>
 800312e:	4631      	mov	r1, r6
 8003130:	4628      	mov	r0, r5
 8003132:	f000 fbeb 	bl	800390c <USBD_CtlError>
 8003136:	2402      	movs	r4, #2
 8003138:	e7c9      	b.n	80030ce <USBD_CDC_Setup+0x4a>

0800313a <USBD_CDC_DeInit>:
 800313a:	b538      	push	{r3, r4, r5, lr}
 800313c:	4604      	mov	r4, r0
 800313e:	2500      	movs	r5, #0
 8003140:	2181      	movs	r1, #129	; 0x81
 8003142:	f000 fe76 	bl	8003e32 <USBD_LL_CloseEP>
 8003146:	2101      	movs	r1, #1
 8003148:	62e5      	str	r5, [r4, #44]	; 0x2c
 800314a:	4620      	mov	r0, r4
 800314c:	f000 fe71 	bl	8003e32 <USBD_LL_CloseEP>
 8003150:	f8c4 516c 	str.w	r5, [r4, #364]	; 0x16c
 8003154:	2182      	movs	r1, #130	; 0x82
 8003156:	4620      	mov	r0, r4
 8003158:	f000 fe6b 	bl	8003e32 <USBD_LL_CloseEP>
 800315c:	f8d4 32b8 	ldr.w	r3, [r4, #696]	; 0x2b8
 8003160:	6425      	str	r5, [r4, #64]	; 0x40
 8003162:	b14b      	cbz	r3, 8003178 <USBD_CDC_DeInit+0x3e>
 8003164:	f8d4 32bc 	ldr.w	r3, [r4, #700]	; 0x2bc
 8003168:	685b      	ldr	r3, [r3, #4]
 800316a:	4798      	blx	r3
 800316c:	f8d4 02b8 	ldr.w	r0, [r4, #696]	; 0x2b8
 8003170:	f000 feb0 	bl	8003ed4 <USBD_static_free>
 8003174:	f8c4 52b8 	str.w	r5, [r4, #696]	; 0x2b8
 8003178:	2000      	movs	r0, #0
 800317a:	bd38      	pop	{r3, r4, r5, pc}

0800317c <USBD_CDC_Init>:
 800317c:	e92d 41f0 	stmdb	sp!, {r4, r5, r6, r7, r8, lr}
 8003180:	7c03      	ldrb	r3, [r0, #16]
 8003182:	4604      	mov	r4, r0
 8003184:	bbb3      	cbnz	r3, 80031f4 <USBD_CDC_Init+0x78>
 8003186:	f44f 7300 	mov.w	r3, #512	; 0x200
 800318a:	2181      	movs	r1, #129	; 0x81
 800318c:	2202      	movs	r2, #2
 800318e:	f000 fe44 	bl	8003e1a <USBD_LL_OpenEP>
 8003192:	2101      	movs	r1, #1
 8003194:	62e1      	str	r1, [r4, #44]	; 0x2c
 8003196:	f44f 7300 	mov.w	r3, #512	; 0x200
 800319a:	2202      	movs	r2, #2
 800319c:	2601      	movs	r6, #1
 800319e:	4620      	mov	r0, r4
 80031a0:	f000 fe3b 	bl	8003e1a <USBD_LL_OpenEP>
 80031a4:	2308      	movs	r3, #8
 80031a6:	2203      	movs	r2, #3
 80031a8:	2182      	movs	r1, #130	; 0x82
 80031aa:	f8c4 616c 	str.w	r6, [r4, #364]	; 0x16c
 80031ae:	4620      	mov	r0, r4
 80031b0:	f000 fe33 	bl	8003e1a <USBD_LL_OpenEP>
 80031b4:	6426      	str	r6, [r4, #64]	; 0x40
 80031b6:	f44f 7007 	mov.w	r0, #540	; 0x21c
 80031ba:	f000 fe87 	bl	8003ecc <USBD_static_malloc>
 80031be:	4605      	mov	r5, r0
 80031c0:	f8c4 02b8 	str.w	r0, [r4, #696]	; 0x2b8
 80031c4:	b340      	cbz	r0, 8003218 <USBD_CDC_Init+0x9c>
 80031c6:	f8d4 32bc 	ldr.w	r3, [r4, #700]	; 0x2bc
 80031ca:	f04f 0800 	mov.w	r8, #0
 80031ce:	681b      	ldr	r3, [r3, #0]
 80031d0:	4798      	blx	r3
 80031d2:	f8c5 8214 	str.w	r8, [r5, #532]	; 0x214
 80031d6:	f8c5 8218 	str.w	r8, [r5, #536]	; 0x218
 80031da:	7c27      	ldrb	r7, [r4, #16]
 80031dc:	b99f      	cbnz	r7, 8003206 <USBD_CDC_Init+0x8a>
 80031de:	f8d5 2204 	ldr.w	r2, [r5, #516]	; 0x204
 80031e2:	f44f 7300 	mov.w	r3, #512	; 0x200
 80031e6:	4631      	mov	r1, r6
 80031e8:	4620      	mov	r0, r4
 80031ea:	f000 fe62 	bl	8003eb2 <USBD_LL_PrepareReceive>
 80031ee:	4638      	mov	r0, r7
 80031f0:	e8bd 81f0 	ldmia.w	sp!, {r4, r5, r6, r7, r8, pc}
 80031f4:	2340      	movs	r3, #64	; 0x40
 80031f6:	2181      	movs	r1, #129	; 0x81
 80031f8:	2202      	movs	r2, #2
 80031fa:	f000 fe0e 	bl	8003e1a <USBD_LL_OpenEP>
 80031fe:	2101      	movs	r1, #1
 8003200:	62e1      	str	r1, [r4, #44]	; 0x2c
 8003202:	2340      	movs	r3, #64	; 0x40
 8003204:	e7c9      	b.n	800319a <USBD_CDC_Init+0x1e>
 8003206:	f8d5 2204 	ldr.w	r2, [r5, #516]	; 0x204
 800320a:	2340      	movs	r3, #64	; 0x40
 800320c:	4631      	mov	r1, r6
 800320e:	4620      	mov	r0, r4
 8003210:	f000 fe4f 	bl	8003eb2 <USBD_LL_PrepareReceive>
 8003214:	4647      	mov	r7, r8
 8003216:	e7ea      	b.n	80031ee <USBD_CDC_Init+0x72>
 8003218:	4637      	mov	r7, r6
 800321a:	e7e8      	b.n	80031ee <USBD_CDC_Init+0x72>

0800321c <USBD_CDC_RegisterInterface>:
 800321c:	b119      	cbz	r1, 8003226 <USBD_CDC_RegisterInterface+0xa>
 800321e:	f8c0 12bc 	str.w	r1, [r0, #700]	; 0x2bc
 8003222:	2000      	movs	r0, #0
 8003224:	4770      	bx	lr
 8003226:	2002      	movs	r0, #2
 8003228:	4770      	bx	lr

0800322a <USBD_CDC_SetTxBuffer>:
 800322a:	f8d0 32b8 	ldr.w	r3, [r0, #696]	; 0x2b8
 800322e:	2000      	movs	r0, #0
 8003230:	f8c3 1208 	str.w	r1, [r3, #520]	; 0x208
 8003234:	f8c3 2210 	str.w	r2, [r3, #528]	; 0x210
 8003238:	4770      	bx	lr

0800323a <USBD_CDC_SetRxBuffer>:
 800323a:	f8d0 32b8 	ldr.w	r3, [r0, #696]	; 0x2b8
 800323e:	2000      	movs	r0, #0
 8003240:	f8c3 1204 	str.w	r1, [r3, #516]	; 0x204
 8003244:	4770      	bx	lr

08003246 <USBD_CDC_TransmitPacket>:
 8003246:	f8d0 22b8 	ldr.w	r2, [r0, #696]	; 0x2b8
 800324a:	b510      	push	{r4, lr}
 800324c:	b182      	cbz	r2, 8003270 <USBD_CDC_TransmitPacket+0x2a>
 800324e:	f8d2 4214 	ldr.w	r4, [r2, #532]	; 0x214
 8003252:	2301      	movs	r3, #1
 8003254:	b974      	cbnz	r4, 8003274 <USBD_CDC_TransmitPacket+0x2e>
 8003256:	f8c2 3214 	str.w	r3, [r2, #532]	; 0x214
 800325a:	f8d2 3210 	ldr.w	r3, [r2, #528]	; 0x210
 800325e:	6303      	str	r3, [r0, #48]	; 0x30
 8003260:	f8d2 2208 	ldr.w	r2, [r2, #520]	; 0x208
 8003264:	b29b      	uxth	r3, r3
 8003266:	2181      	movs	r1, #129	; 0x81
 8003268:	f000 fe1a 	bl	8003ea0 <USBD_LL_Transmit>
 800326c:	4620      	mov	r0, r4
 800326e:	bd10      	pop	{r4, pc}
 8003270:	2002      	movs	r0, #2
 8003272:	e7fc      	b.n	800326e <USBD_CDC_TransmitPacket+0x28>
 8003274:	4618      	mov	r0, r3
 8003276:	e7fa      	b.n	800326e <USBD_CDC_TransmitPacket+0x28>

08003278 <USBD_CDC_ReceivePacket>:
 8003278:	f8d0 22b8 	ldr.w	r2, [r0, #696]	; 0x2b8
 800327c:	b510      	push	{r4, lr}
 800327e:	b182      	cbz	r2, 80032a2 <USBD_CDC_ReceivePacket+0x2a>
 8003280:	7c04      	ldrb	r4, [r0, #16]
 8003282:	f8d2 2204 	ldr.w	r2, [r2, #516]	; 0x204
 8003286:	b934      	cbnz	r4, 8003296 <USBD_CDC_ReceivePacket+0x1e>
 8003288:	f44f 7300 	mov.w	r3, #512	; 0x200
 800328c:	2101      	movs	r1, #1
 800328e:	f000 fe10 	bl	8003eb2 <USBD_LL_PrepareReceive>
 8003292:	4620      	mov	r0, r4
 8003294:	bd10      	pop	{r4, pc}
 8003296:	2340      	movs	r3, #64	; 0x40
 8003298:	2101      	movs	r1, #1
 800329a:	f000 fe0a 	bl	8003eb2 <USBD_LL_PrepareReceive>
 800329e:	2400      	movs	r4, #0
 80032a0:	e7f7      	b.n	8003292 <USBD_CDC_ReceivePacket+0x1a>
 80032a2:	2402      	movs	r4, #2
 80032a4:	e7f5      	b.n	8003292 <USBD_CDC_ReceivePacket+0x1a>

080032a6 <USBD_Init>:
 80032a6:	b508      	push	{r3, lr}
 80032a8:	b180      	cbz	r0, 80032cc <USBD_Init+0x26>
 80032aa:	f8d0 32b4 	ldr.w	r3, [r0, #692]	; 0x2b4
 80032ae:	b113      	cbz	r3, 80032b6 <USBD_Init+0x10>
 80032b0:	2300      	movs	r3, #0
 80032b2:	f8c0 32b4 	str.w	r3, [r0, #692]	; 0x2b4
 80032b6:	b109      	cbz	r1, 80032bc <USBD_Init+0x16>
 80032b8:	f8c0 12b0 	str.w	r1, [r0, #688]	; 0x2b0
 80032bc:	2301      	movs	r3, #1
 80032be:	f880 329c 	strb.w	r3, [r0, #668]	; 0x29c
 80032c2:	7002      	strb	r2, [r0, #0]
 80032c4:	f000 fd5e 	bl	8003d84 <USBD_LL_Init>
 80032c8:	2000      	movs	r0, #0
 80032ca:	bd08      	pop	{r3, pc}
 80032cc:	2002      	movs	r0, #2
 80032ce:	e7fc      	b.n	80032ca <USBD_Init+0x24>

080032d0 <USBD_RegisterClass>:
 80032d0:	b119      	cbz	r1, 80032da <USBD_RegisterClass+0xa>
 80032d2:	f8c0 12b4 	str.w	r1, [r0, #692]	; 0x2b4
 80032d6:	2000      	movs	r0, #0
 80032d8:	4770      	bx	lr
 80032da:	2002      	movs	r0, #2
 80032dc:	4770      	bx	lr

080032de <USBD_Start>:
 80032de:	b508      	push	{r3, lr}
 80032e0:	f000 fd92 	bl	8003e08 <USBD_LL_Start>
 80032e4:	2000      	movs	r0, #0
 80032e6:	bd08      	pop	{r3, pc}

080032e8 <USBD_SetClassConfig>:
 80032e8:	b508      	push	{r3, lr}
 80032ea:	f8d0 32b4 	ldr.w	r3, [r0, #692]	; 0x2b4
 80032ee:	b133      	cbz	r3, 80032fe <USBD_SetClassConfig+0x16>
 80032f0:	681b      	ldr	r3, [r3, #0]
 80032f2:	4798      	blx	r3
 80032f4:	3800      	subs	r0, #0
 80032f6:	bf18      	it	ne
 80032f8:	2001      	movne	r0, #1
 80032fa:	0040      	lsls	r0, r0, #1
 80032fc:	bd08      	pop	{r3, pc}
 80032fe:	2002      	movs	r0, #2
 8003300:	e7fc      	b.n	80032fc <USBD_SetClassConfig+0x14>

08003302 <USBD_ClrClassConfig>:
 8003302:	b508      	push	{r3, lr}
 8003304:	f8d0 32b4 	ldr.w	r3, [r0, #692]	; 0x2b4
 8003308:	685b      	ldr	r3, [r3, #4]
 800330a:	4798      	blx	r3
 800330c:	2000      	movs	r0, #0
 800330e:	bd08      	pop	{r3, pc}

08003310 <USBD_LL_SetupStage>:
 8003310:	b538      	push	{r3, r4, r5, lr}
 8003312:	4604      	mov	r4, r0
 8003314:	f500 752a 	add.w	r5, r0, #680	; 0x2a8
 8003318:	4628      	mov	r0, r5
 800331a:	f000 fae3 	bl	80038e4 <USBD_ParseSetupRequest>
 800331e:	2301      	movs	r3, #1
 8003320:	f894 12a8 	ldrb.w	r1, [r4, #680]	; 0x2a8
 8003324:	f8c4 3294 	str.w	r3, [r4, #660]	; 0x294
 8003328:	f8b4 32ae 	ldrh.w	r3, [r4, #686]	; 0x2ae
 800332c:	f8c4 3298 	str.w	r3, [r4, #664]	; 0x298
 8003330:	f001 031f 	and.w	r3, r1, #31
 8003334:	2b01      	cmp	r3, #1
 8003336:	d008      	beq.n	800334a <USBD_LL_SetupStage+0x3a>
 8003338:	2b02      	cmp	r3, #2
 800333a:	d00b      	beq.n	8003354 <USBD_LL_SetupStage+0x44>
 800333c:	b97b      	cbnz	r3, 800335e <USBD_LL_SetupStage+0x4e>
 800333e:	4629      	mov	r1, r5
 8003340:	4620      	mov	r0, r4
 8003342:	f000 f8fb 	bl	800353c <USBD_StdDevReq>
 8003346:	2000      	movs	r0, #0
 8003348:	bd38      	pop	{r3, r4, r5, pc}
 800334a:	4629      	mov	r1, r5
 800334c:	4620      	mov	r0, r4
 800334e:	f000 fa1d 	bl	800378c <USBD_StdItfReq>
 8003352:	e7f8      	b.n	8003346 <USBD_LL_SetupStage+0x36>
 8003354:	4629      	mov	r1, r5
 8003356:	4620      	mov	r0, r4
 8003358:	f000 fa3c 	bl	80037d4 <USBD_StdEPReq>
 800335c:	e7f3      	b.n	8003346 <USBD_LL_SetupStage+0x36>
 800335e:	f001 0180 	and.w	r1, r1, #128	; 0x80
 8003362:	4620      	mov	r0, r4
 8003364:	f000 fd6e 	bl	8003e44 <USBD_LL_StallEP>
 8003368:	e7ed      	b.n	8003346 <USBD_LL_SetupStage+0x36>

0800336a <USBD_LL_DataOutStage>:
 800336a:	b5f8      	push	{r3, r4, r5, r6, r7, lr}
 800336c:	4604      	mov	r4, r0
 800336e:	4617      	mov	r7, r2
 8003370:	460d      	mov	r5, r1
 8003372:	bb39      	cbnz	r1, 80033c4 <USBD_LL_DataOutStage+0x5a>
 8003374:	f8d0 3294 	ldr.w	r3, [r0, #660]	; 0x294
 8003378:	2b03      	cmp	r3, #3
 800337a:	d11c      	bne.n	80033b6 <USBD_LL_DataOutStage+0x4c>
 800337c:	e9d0 6258 	ldrd	r6, r2, [r0, #352]	; 0x160
 8003380:	4296      	cmp	r6, r2
 8003382:	d90b      	bls.n	800339c <USBD_LL_DataOutStage+0x32>
 8003384:	1ab6      	subs	r6, r6, r2
 8003386:	42b2      	cmp	r2, r6
 8003388:	f8c0 6160 	str.w	r6, [r0, #352]	; 0x160
 800338c:	bf8c      	ite	hi
 800338e:	b2b2      	uxthhi	r2, r6
 8003390:	b292      	uxthls	r2, r2
 8003392:	4639      	mov	r1, r7
 8003394:	f000 fb03 	bl	800399e <USBD_CtlContinueRx>
 8003398:	4628      	mov	r0, r5
 800339a:	bdf8      	pop	{r3, r4, r5, r6, r7, pc}
 800339c:	f8d0 32b4 	ldr.w	r3, [r0, #692]	; 0x2b4
 80033a0:	691b      	ldr	r3, [r3, #16]
 80033a2:	b123      	cbz	r3, 80033ae <USBD_LL_DataOutStage+0x44>
 80033a4:	f890 229c 	ldrb.w	r2, [r0, #668]	; 0x29c
 80033a8:	2a03      	cmp	r2, #3
 80033aa:	d100      	bne.n	80033ae <USBD_LL_DataOutStage+0x44>
 80033ac:	4798      	blx	r3
 80033ae:	4620      	mov	r0, r4
 80033b0:	f000 fafd 	bl	80039ae <USBD_CtlSendStatus>
 80033b4:	e7f0      	b.n	8003398 <USBD_LL_DataOutStage+0x2e>
 80033b6:	2b05      	cmp	r3, #5
 80033b8:	d1ee      	bne.n	8003398 <USBD_LL_DataOutStage+0x2e>
 80033ba:	f8c4 1294 	str.w	r1, [r4, #660]	; 0x294
 80033be:	f000 fd41 	bl	8003e44 <USBD_LL_StallEP>
 80033c2:	e7e9      	b.n	8003398 <USBD_LL_DataOutStage+0x2e>
 80033c4:	f8d0 32b4 	ldr.w	r3, [r0, #692]	; 0x2b4
 80033c8:	699b      	ldr	r3, [r3, #24]
 80033ca:	b133      	cbz	r3, 80033da <USBD_LL_DataOutStage+0x70>
 80033cc:	f890 229c 	ldrb.w	r2, [r0, #668]	; 0x29c
 80033d0:	2a03      	cmp	r2, #3
 80033d2:	d102      	bne.n	80033da <USBD_LL_DataOutStage+0x70>
 80033d4:	4798      	blx	r3
 80033d6:	2500      	movs	r5, #0
 80033d8:	e7de      	b.n	8003398 <USBD_LL_DataOutStage+0x2e>
 80033da:	2502      	movs	r5, #2
 80033dc:	e7dc      	b.n	8003398 <USBD_LL_DataOutStage+0x2e>

080033de <USBD_LL_DataInStage>:
 80033de:	b5f8      	push	{r3, r4, r5, r6, r7, lr}
 80033e0:	4604      	mov	r4, r0
 80033e2:	4617      	mov	r7, r2
 80033e4:	460d      	mov	r5, r1
 80033e6:	2900      	cmp	r1, #0
 80033e8:	d147      	bne.n	800347a <USBD_LL_DataInStage+0x9c>
 80033ea:	f8d0 3294 	ldr.w	r3, [r0, #660]	; 0x294
 80033ee:	2b02      	cmp	r3, #2
 80033f0:	d13c      	bne.n	800346c <USBD_LL_DataInStage+0x8e>
 80033f2:	e9d0 6308 	ldrd	r6, r3, [r0, #32]
 80033f6:	429e      	cmp	r6, r3
 80033f8:	d914      	bls.n	8003424 <USBD_LL_DataInStage+0x46>
 80033fa:	1af6      	subs	r6, r6, r3
 80033fc:	6206      	str	r6, [r0, #32]
 80033fe:	b2b2      	uxth	r2, r6
 8003400:	4639      	mov	r1, r7
 8003402:	f000 fab7 	bl	8003974 <USBD_CtlContinueSendData>
 8003406:	462b      	mov	r3, r5
 8003408:	462a      	mov	r2, r5
 800340a:	4629      	mov	r1, r5
 800340c:	4620      	mov	r0, r4
 800340e:	f000 fd50 	bl	8003eb2 <USBD_LL_PrepareReceive>
 8003412:	f894 32a0 	ldrb.w	r3, [r4, #672]	; 0x2a0
 8003416:	2b01      	cmp	r3, #1
 8003418:	d102      	bne.n	8003420 <USBD_LL_DataInStage+0x42>
 800341a:	2300      	movs	r3, #0
 800341c:	f884 32a0 	strb.w	r3, [r4, #672]	; 0x2a0
 8003420:	4628      	mov	r0, r5
 8003422:	bdf8      	pop	{r3, r4, r5, r6, r7, pc}
 8003424:	69c2      	ldr	r2, [r0, #28]
 8003426:	fbb2 f6f3 	udiv	r6, r2, r3
 800342a:	fb03 2616 	mls	r6, r3, r6, r2
 800342e:	b95e      	cbnz	r6, 8003448 <USBD_LL_DataInStage+0x6a>
 8003430:	4293      	cmp	r3, r2
 8003432:	d809      	bhi.n	8003448 <USBD_LL_DataInStage+0x6a>
 8003434:	f8d0 3298 	ldr.w	r3, [r0, #664]	; 0x298
 8003438:	429a      	cmp	r2, r3
 800343a:	d205      	bcs.n	8003448 <USBD_LL_DataInStage+0x6a>
 800343c:	460a      	mov	r2, r1
 800343e:	f000 fa99 	bl	8003974 <USBD_CtlContinueSendData>
 8003442:	f8c4 5298 	str.w	r5, [r4, #664]	; 0x298
 8003446:	e7de      	b.n	8003406 <USBD_LL_DataInStage+0x28>
 8003448:	f8d4 32b4 	ldr.w	r3, [r4, #692]	; 0x2b4
 800344c:	68db      	ldr	r3, [r3, #12]
 800344e:	b12b      	cbz	r3, 800345c <USBD_LL_DataInStage+0x7e>
 8003450:	f894 229c 	ldrb.w	r2, [r4, #668]	; 0x29c
 8003454:	2a03      	cmp	r2, #3
 8003456:	d101      	bne.n	800345c <USBD_LL_DataInStage+0x7e>
 8003458:	4620      	mov	r0, r4
 800345a:	4798      	blx	r3
 800345c:	2180      	movs	r1, #128	; 0x80
 800345e:	4620      	mov	r0, r4
 8003460:	f000 fcf0 	bl	8003e44 <USBD_LL_StallEP>
 8003464:	4620      	mov	r0, r4
 8003466:	f000 faad 	bl	80039c4 <USBD_CtlReceiveStatus>
 800346a:	e7d2      	b.n	8003412 <USBD_LL_DataInStage+0x34>
 800346c:	f033 0304 	bics.w	r3, r3, #4
 8003470:	d1cf      	bne.n	8003412 <USBD_LL_DataInStage+0x34>
 8003472:	2180      	movs	r1, #128	; 0x80
 8003474:	f000 fce6 	bl	8003e44 <USBD_LL_StallEP>
 8003478:	e7cb      	b.n	8003412 <USBD_LL_DataInStage+0x34>
 800347a:	f8d0 32b4 	ldr.w	r3, [r0, #692]	; 0x2b4
 800347e:	695b      	ldr	r3, [r3, #20]
 8003480:	b133      	cbz	r3, 8003490 <USBD_LL_DataInStage+0xb2>
 8003482:	f890 229c 	ldrb.w	r2, [r0, #668]	; 0x29c
 8003486:	2a03      	cmp	r2, #3
 8003488:	d102      	bne.n	8003490 <USBD_LL_DataInStage+0xb2>
 800348a:	4798      	blx	r3
 800348c:	2500      	movs	r5, #0
 800348e:	e7c7      	b.n	8003420 <USBD_LL_DataInStage+0x42>
 8003490:	2502      	movs	r5, #2
 8003492:	e7c5      	b.n	8003420 <USBD_LL_DataInStage+0x42>

08003494 <USBD_LL_Reset>:
 8003494:	b570      	push	{r4, r5, r6, lr}
 8003496:	2200      	movs	r2, #0
 8003498:	4604      	mov	r4, r0
 800349a:	4611      	mov	r1, r2
 800349c:	2501      	movs	r5, #1
 800349e:	2640      	movs	r6, #64	; 0x40
 80034a0:	2340      	movs	r3, #64	; 0x40
 80034a2:	f000 fcba 	bl	8003e1a <USBD_LL_OpenEP>
 80034a6:	4633      	mov	r3, r6
 80034a8:	2180      	movs	r1, #128	; 0x80
 80034aa:	f8c4 5158 	str.w	r5, [r4, #344]	; 0x158
 80034ae:	f8c4 6164 	str.w	r6, [r4, #356]	; 0x164
 80034b2:	2200      	movs	r2, #0
 80034b4:	4620      	mov	r0, r4
 80034b6:	f000 fcb0 	bl	8003e1a <USBD_LL_OpenEP>
 80034ba:	f8d4 32b8 	ldr.w	r3, [r4, #696]	; 0x2b8
 80034be:	61a5      	str	r5, [r4, #24]
 80034c0:	2100      	movs	r1, #0
 80034c2:	6266      	str	r6, [r4, #36]	; 0x24
 80034c4:	f884 529c 	strb.w	r5, [r4, #668]	; 0x29c
 80034c8:	f8c4 1294 	str.w	r1, [r4, #660]	; 0x294
 80034cc:	6061      	str	r1, [r4, #4]
 80034ce:	f8c4 12a4 	str.w	r1, [r4, #676]	; 0x2a4
 80034d2:	b123      	cbz	r3, 80034de <USBD_LL_Reset+0x4a>
 80034d4:	f8d4 32b4 	ldr.w	r3, [r4, #692]	; 0x2b4
 80034d8:	4620      	mov	r0, r4
 80034da:	685b      	ldr	r3, [r3, #4]
 80034dc:	4798      	blx	r3
 80034de:	2000      	movs	r0, #0
 80034e0:	bd70      	pop	{r4, r5, r6, pc}

080034e2 <USBD_LL_SetSpeed>:
 80034e2:	7401      	strb	r1, [r0, #16]
 80034e4:	2000      	movs	r0, #0
 80034e6:	4770      	bx	lr

080034e8 <USBD_LL_Suspend>:
 80034e8:	f890 329c 	ldrb.w	r3, [r0, #668]	; 0x29c
 80034ec:	f880 329d 	strb.w	r3, [r0, #669]	; 0x29d
 80034f0:	2304      	movs	r3, #4
 80034f2:	f880 329c 	strb.w	r3, [r0, #668]	; 0x29c
 80034f6:	2000      	movs	r0, #0
 80034f8:	4770      	bx	lr

080034fa <USBD_LL_Resume>:
 80034fa:	f890 329c 	ldrb.w	r3, [r0, #668]	; 0x29c
 80034fe:	2b04      	cmp	r3, #4
 8003500:	bf04      	itt	eq
 8003502:	f890 329d 	ldrbeq.w	r3, [r0, #669]	; 0x29d
 8003506:	f880 329c 	strbeq.w	r3, [r0, #668]	; 0x29c
 800350a:	2000      	movs	r0, #0
 800350c:	4770      	bx	lr

0800350e <USBD_LL_SOF>:
 800350e:	b508      	push	{r3, lr}
 8003510:	f890 229c 	ldrb.w	r2, [r0, #668]	; 0x29c
 8003514:	2a03      	cmp	r2, #3
 8003516:	d104      	bne.n	8003522 <USBD_LL_SOF+0x14>
 8003518:	f8d0 32b4 	ldr.w	r3, [r0, #692]	; 0x2b4
 800351c:	69db      	ldr	r3, [r3, #28]
 800351e:	b103      	cbz	r3, 8003522 <USBD_LL_SOF+0x14>
 8003520:	4798      	blx	r3
 8003522:	2000      	movs	r0, #0
 8003524:	bd08      	pop	{r3, pc}

08003526 <USBD_CtlError.constprop.0>:
 8003526:	b510      	push	{r4, lr}
 8003528:	2180      	movs	r1, #128	; 0x80
 800352a:	4604      	mov	r4, r0
 800352c:	f000 fc8a 	bl	8003e44 <USBD_LL_StallEP>
 8003530:	4620      	mov	r0, r4
 8003532:	2100      	movs	r1, #0
 8003534:	e8bd 4010 	ldmia.w	sp!, {r4, lr}
 8003538:	f000 bc84 	b.w	8003e44 <USBD_LL_StallEP>

0800353c <USBD_StdDevReq>:
 800353c:	b537      	push	{r0, r1, r2, r4, r5, lr}
 800353e:	780b      	ldrb	r3, [r1, #0]
 8003540:	f003 0360 	and.w	r3, r3, #96	; 0x60
 8003544:	2b20      	cmp	r3, #32
 8003546:	4604      	mov	r4, r0
 8003548:	460d      	mov	r5, r1
 800354a:	d012      	beq.n	8003572 <USBD_StdDevReq+0x36>
 800354c:	2b40      	cmp	r3, #64	; 0x40
 800354e:	d010      	beq.n	8003572 <USBD_StdDevReq+0x36>
 8003550:	2b00      	cmp	r3, #0
 8003552:	d151      	bne.n	80035f8 <USBD_StdDevReq+0xbc>
 8003554:	784b      	ldrb	r3, [r1, #1]
 8003556:	2b09      	cmp	r3, #9
 8003558:	d84e      	bhi.n	80035f8 <USBD_StdDevReq+0xbc>
 800355a:	e8df f013 	tbh	[pc, r3, lsl #1]
 800355e:	00ee      	.short	0x00ee
 8003560:	004d0109 	.word	0x004d0109
 8003564:	004d0102 	.word	0x004d0102
 8003568:	00130087 	.word	0x00130087
 800356c:	00d6004d 	.word	0x00d6004d
 8003570:	00a3      	.short	0x00a3
 8003572:	f8d4 32b4 	ldr.w	r3, [r4, #692]	; 0x2b4
 8003576:	4629      	mov	r1, r5
 8003578:	689b      	ldr	r3, [r3, #8]
 800357a:	4620      	mov	r0, r4
 800357c:	4798      	blx	r3
 800357e:	2000      	movs	r0, #0
 8003580:	b003      	add	sp, #12
 8003582:	bd30      	pop	{r4, r5, pc}
 8003584:	2300      	movs	r3, #0
 8003586:	f8ad 3006 	strh.w	r3, [sp, #6]
 800358a:	884b      	ldrh	r3, [r1, #2]
 800358c:	0a1a      	lsrs	r2, r3, #8
 800358e:	3a01      	subs	r2, #1
 8003590:	2a06      	cmp	r2, #6
 8003592:	d831      	bhi.n	80035f8 <USBD_StdDevReq+0xbc>
 8003594:	e8df f002 	tbb	[pc, r2]
 8003598:	30231604 	.word	0x30231604
 800359c:	4830      	.short	0x4830
 800359e:	52          	.byte	0x52
 800359f:	00          	.byte	0x00
 80035a0:	f8d0 32b0 	ldr.w	r3, [r0, #688]	; 0x2b0
 80035a4:	681b      	ldr	r3, [r3, #0]
 80035a6:	7c20      	ldrb	r0, [r4, #16]
 80035a8:	f10d 0106 	add.w	r1, sp, #6
 80035ac:	4798      	blx	r3
 80035ae:	f8bd 2006 	ldrh.w	r2, [sp, #6]
 80035b2:	88eb      	ldrh	r3, [r5, #6]
 80035b4:	2a00      	cmp	r2, #0
 80035b6:	d055      	beq.n	8003664 <USBD_StdDevReq+0x128>
 80035b8:	2b00      	cmp	r3, #0
 80035ba:	d14a      	bne.n	8003652 <USBD_StdDevReq+0x116>
 80035bc:	4620      	mov	r0, r4
 80035be:	f000 f9f6 	bl	80039ae <USBD_CtlSendStatus>
 80035c2:	e7dc      	b.n	800357e <USBD_StdDevReq+0x42>
 80035c4:	7c02      	ldrb	r2, [r0, #16]
 80035c6:	f8d0 32b4 	ldr.w	r3, [r0, #692]	; 0x2b4
 80035ca:	b932      	cbnz	r2, 80035da <USBD_StdDevReq+0x9e>
 80035cc:	6a9b      	ldr	r3, [r3, #40]	; 0x28
 80035ce:	f10d 0006 	add.w	r0, sp, #6
 80035d2:	4798      	blx	r3
 80035d4:	2302      	movs	r3, #2
 80035d6:	7043      	strb	r3, [r0, #1]
 80035d8:	e7e9      	b.n	80035ae <USBD_StdDevReq+0x72>
 80035da:	6adb      	ldr	r3, [r3, #44]	; 0x2c
 80035dc:	e7f7      	b.n	80035ce <USBD_StdDevReq+0x92>
 80035de:	b2db      	uxtb	r3, r3
 80035e0:	2b05      	cmp	r3, #5
 80035e2:	d809      	bhi.n	80035f8 <USBD_StdDevReq+0xbc>
 80035e4:	e8df f003 	tbb	[pc, r3]
 80035e8:	14100c03 	.word	0x14100c03
 80035ec:	1c18      	.short	0x1c18
 80035ee:	f8d0 32b0 	ldr.w	r3, [r0, #688]	; 0x2b0
 80035f2:	685b      	ldr	r3, [r3, #4]
 80035f4:	2b00      	cmp	r3, #0
 80035f6:	d1d6      	bne.n	80035a6 <USBD_StdDevReq+0x6a>
 80035f8:	4620      	mov	r0, r4
 80035fa:	f7ff ff94 	bl	8003526 <USBD_CtlError.constprop.0>
 80035fe:	e7be      	b.n	800357e <USBD_StdDevReq+0x42>
 8003600:	f8d0 32b0 	ldr.w	r3, [r0, #688]	; 0x2b0
 8003604:	689b      	ldr	r3, [r3, #8]
 8003606:	e7f5      	b.n	80035f4 <USBD_StdDevReq+0xb8>
 8003608:	f8d0 32b0 	ldr.w	r3, [r0, #688]	; 0x2b0
 800360c:	68db      	ldr	r3, [r3, #12]
 800360e:	e7f1      	b.n	80035f4 <USBD_StdDevReq+0xb8>
 8003610:	f8d0 32b0 	ldr.w	r3, [r0, #688]	; 0x2b0
 8003614:	691b      	ldr	r3, [r3, #16]
 8003616:	e7ed      	b.n	80035f4 <USBD_StdDevReq+0xb8>
 8003618:	f8d0 32b0 	ldr.w	r3, [r0, #688]	; 0x2b0
 800361c:	695b      	ldr	r3, [r3, #20]
 800361e:	e7e9      	b.n	80035f4 <USBD_StdDevReq+0xb8>
 8003620:	f8d0 32b0 	ldr.w	r3, [r0, #688]	; 0x2b0
 8003624:	699b      	ldr	r3, [r3, #24]
 8003626:	e7e5      	b.n	80035f4 <USBD_StdDevReq+0xb8>
 8003628:	7c03      	ldrb	r3, [r0, #16]
 800362a:	2b00      	cmp	r3, #0
 800362c:	d1e4      	bne.n	80035f8 <USBD_StdDevReq+0xbc>
 800362e:	f8d0 32b4 	ldr.w	r3, [r0, #692]	; 0x2b4
 8003632:	f10d 0006 	add.w	r0, sp, #6
 8003636:	6b5b      	ldr	r3, [r3, #52]	; 0x34
 8003638:	4798      	blx	r3
 800363a:	e7b8      	b.n	80035ae <USBD_StdDevReq+0x72>
 800363c:	7c03      	ldrb	r3, [r0, #16]
 800363e:	2b00      	cmp	r3, #0
 8003640:	d1da      	bne.n	80035f8 <USBD_StdDevReq+0xbc>
 8003642:	f8d0 32b4 	ldr.w	r3, [r0, #692]	; 0x2b4
 8003646:	f10d 0006 	add.w	r0, sp, #6
 800364a:	6b1b      	ldr	r3, [r3, #48]	; 0x30
 800364c:	4798      	blx	r3
 800364e:	2307      	movs	r3, #7
 8003650:	e7c1      	b.n	80035d6 <USBD_StdDevReq+0x9a>
 8003652:	429a      	cmp	r2, r3
 8003654:	bf28      	it	cs
 8003656:	461a      	movcs	r2, r3
 8003658:	4601      	mov	r1, r0
 800365a:	4620      	mov	r0, r4
 800365c:	f8ad 2006 	strh.w	r2, [sp, #6]
 8003660:	f000 f97b 	bl	800395a <USBD_CtlSendData>
 8003664:	88eb      	ldrh	r3, [r5, #6]
 8003666:	2b00      	cmp	r3, #0
 8003668:	d189      	bne.n	800357e <USBD_StdDevReq+0x42>
 800366a:	e7a7      	b.n	80035bc <USBD_StdDevReq+0x80>
 800366c:	888b      	ldrh	r3, [r1, #4]
 800366e:	2b00      	cmp	r3, #0
 8003670:	d1c2      	bne.n	80035f8 <USBD_StdDevReq+0xbc>
 8003672:	88cb      	ldrh	r3, [r1, #6]
 8003674:	2b00      	cmp	r3, #0
 8003676:	d1bf      	bne.n	80035f8 <USBD_StdDevReq+0xbc>
 8003678:	884d      	ldrh	r5, [r1, #2]
 800367a:	2d7f      	cmp	r5, #127	; 0x7f
 800367c:	d8bc      	bhi.n	80035f8 <USBD_StdDevReq+0xbc>
 800367e:	f890 329c 	ldrb.w	r3, [r0, #668]	; 0x29c
 8003682:	2b03      	cmp	r3, #3
 8003684:	d0b8      	beq.n	80035f8 <USBD_StdDevReq+0xbc>
 8003686:	b2e9      	uxtb	r1, r5
 8003688:	f880 129e 	strb.w	r1, [r0, #670]	; 0x29e
 800368c:	f000 fbff 	bl	8003e8e <USBD_LL_SetUSBAddress>
 8003690:	4620      	mov	r0, r4
 8003692:	f000 f98c 	bl	80039ae <USBD_CtlSendStatus>
 8003696:	b11d      	cbz	r5, 80036a0 <USBD_StdDevReq+0x164>
 8003698:	2302      	movs	r3, #2
 800369a:	f884 329c 	strb.w	r3, [r4, #668]	; 0x29c
 800369e:	e76e      	b.n	800357e <USBD_StdDevReq+0x42>
 80036a0:	2301      	movs	r3, #1
 80036a2:	e7fa      	b.n	800369a <USBD_StdDevReq+0x15e>
 80036a4:	7889      	ldrb	r1, [r1, #2]
 80036a6:	4d38      	ldr	r5, [pc, #224]	; (8003788 <USBD_StdDevReq+0x24c>)
 80036a8:	2901      	cmp	r1, #1
 80036aa:	7029      	strb	r1, [r5, #0]
 80036ac:	d8a4      	bhi.n	80035f8 <USBD_StdDevReq+0xbc>
 80036ae:	f890 329c 	ldrb.w	r3, [r0, #668]	; 0x29c
 80036b2:	2b02      	cmp	r3, #2
 80036b4:	d008      	beq.n	80036c8 <USBD_StdDevReq+0x18c>
 80036b6:	2b03      	cmp	r3, #3
 80036b8:	d015      	beq.n	80036e6 <USBD_StdDevReq+0x1aa>
 80036ba:	f7ff ff34 	bl	8003526 <USBD_CtlError.constprop.0>
 80036be:	7829      	ldrb	r1, [r5, #0]
 80036c0:	4620      	mov	r0, r4
 80036c2:	f7ff fe1e 	bl	8003302 <USBD_ClrClassConfig>
 80036c6:	e75a      	b.n	800357e <USBD_StdDevReq+0x42>
 80036c8:	2900      	cmp	r1, #0
 80036ca:	f43f af77 	beq.w	80035bc <USBD_StdDevReq+0x80>
 80036ce:	2101      	movs	r1, #1
 80036d0:	2303      	movs	r3, #3
 80036d2:	6041      	str	r1, [r0, #4]
 80036d4:	f880 329c 	strb.w	r3, [r0, #668]	; 0x29c
 80036d8:	4620      	mov	r0, r4
 80036da:	f7ff fe05 	bl	80032e8 <USBD_SetClassConfig>
 80036de:	2802      	cmp	r0, #2
 80036e0:	f47f af6c 	bne.w	80035bc <USBD_StdDevReq+0x80>
 80036e4:	e788      	b.n	80035f8 <USBD_StdDevReq+0xbc>
 80036e6:	b931      	cbnz	r1, 80036f6 <USBD_StdDevReq+0x1ba>
 80036e8:	2302      	movs	r3, #2
 80036ea:	f880 329c 	strb.w	r3, [r0, #668]	; 0x29c
 80036ee:	6041      	str	r1, [r0, #4]
 80036f0:	f7ff fe07 	bl	8003302 <USBD_ClrClassConfig>
 80036f4:	e762      	b.n	80035bc <USBD_StdDevReq+0x80>
 80036f6:	6841      	ldr	r1, [r0, #4]
 80036f8:	2901      	cmp	r1, #1
 80036fa:	f43f af5f 	beq.w	80035bc <USBD_StdDevReq+0x80>
 80036fe:	b2c9      	uxtb	r1, r1
 8003700:	f7ff fdff 	bl	8003302 <USBD_ClrClassConfig>
 8003704:	7829      	ldrb	r1, [r5, #0]
 8003706:	6061      	str	r1, [r4, #4]
 8003708:	e7e6      	b.n	80036d8 <USBD_StdDevReq+0x19c>
 800370a:	88ca      	ldrh	r2, [r1, #6]
 800370c:	2a01      	cmp	r2, #1
 800370e:	f47f af73 	bne.w	80035f8 <USBD_StdDevReq+0xbc>
 8003712:	f890 329c 	ldrb.w	r3, [r0, #668]	; 0x29c
 8003716:	2b02      	cmp	r3, #2
 8003718:	d80a      	bhi.n	8003730 <USBD_StdDevReq+0x1f4>
 800371a:	2b00      	cmp	r3, #0
 800371c:	f43f af6c 	beq.w	80035f8 <USBD_StdDevReq+0xbc>
 8003720:	4601      	mov	r1, r0
 8003722:	2300      	movs	r3, #0
 8003724:	f841 3f08 	str.w	r3, [r1, #8]!
 8003728:	4620      	mov	r0, r4
 800372a:	f000 f916 	bl	800395a <USBD_CtlSendData>
 800372e:	e726      	b.n	800357e <USBD_StdDevReq+0x42>
 8003730:	2b03      	cmp	r3, #3
 8003732:	f47f af61 	bne.w	80035f8 <USBD_StdDevReq+0xbc>
 8003736:	1d01      	adds	r1, r0, #4
 8003738:	e7f6      	b.n	8003728 <USBD_StdDevReq+0x1ec>
 800373a:	f890 329c 	ldrb.w	r3, [r0, #668]	; 0x29c
 800373e:	3b01      	subs	r3, #1
 8003740:	2b02      	cmp	r3, #2
 8003742:	f63f af59 	bhi.w	80035f8 <USBD_StdDevReq+0xbc>
 8003746:	88ca      	ldrh	r2, [r1, #6]
 8003748:	2a02      	cmp	r2, #2
 800374a:	f47f af55 	bne.w	80035f8 <USBD_StdDevReq+0xbc>
 800374e:	f8d0 32a4 	ldr.w	r3, [r0, #676]	; 0x2a4
 8003752:	4601      	mov	r1, r0
 8003754:	2b00      	cmp	r3, #0
 8003756:	bf14      	ite	ne
 8003758:	2303      	movne	r3, #3
 800375a:	2301      	moveq	r3, #1
 800375c:	f841 3f0c 	str.w	r3, [r1, #12]!
 8003760:	e7e2      	b.n	8003728 <USBD_StdDevReq+0x1ec>
 8003762:	884b      	ldrh	r3, [r1, #2]
 8003764:	2b01      	cmp	r3, #1
 8003766:	f47f af0a 	bne.w	800357e <USBD_StdDevReq+0x42>
 800376a:	f8c4 32a4 	str.w	r3, [r4, #676]	; 0x2a4
 800376e:	e725      	b.n	80035bc <USBD_StdDevReq+0x80>
 8003770:	f890 329c 	ldrb.w	r3, [r0, #668]	; 0x29c
 8003774:	3b01      	subs	r3, #1
 8003776:	2b02      	cmp	r3, #2
 8003778:	f63f af3e 	bhi.w	80035f8 <USBD_StdDevReq+0xbc>
 800377c:	884b      	ldrh	r3, [r1, #2]
 800377e:	2b01      	cmp	r3, #1
 8003780:	f47f aefd 	bne.w	800357e <USBD_StdDevReq+0x42>
 8003784:	2300      	movs	r3, #0
 8003786:	e7f0      	b.n	800376a <USBD_StdDevReq+0x22e>
 8003788:	20000234 	.word	0x20000234

0800378c <USBD_StdItfReq>:
 800378c:	b538      	push	{r3, r4, r5, lr}
 800378e:	780b      	ldrb	r3, [r1, #0]
 8003790:	f003 0260 	and.w	r2, r3, #96	; 0x60
 8003794:	2a40      	cmp	r2, #64	; 0x40
 8003796:	4604      	mov	r4, r0
 8003798:	460d      	mov	r5, r1
 800379a:	d001      	beq.n	80037a0 <USBD_StdItfReq+0x14>
 800379c:	065b      	lsls	r3, r3, #25
 800379e:	d415      	bmi.n	80037cc <USBD_StdItfReq+0x40>
 80037a0:	f894 329c 	ldrb.w	r3, [r4, #668]	; 0x29c
 80037a4:	3b01      	subs	r3, #1
 80037a6:	2b02      	cmp	r3, #2
 80037a8:	d810      	bhi.n	80037cc <USBD_StdItfReq+0x40>
 80037aa:	792b      	ldrb	r3, [r5, #4]
 80037ac:	2b01      	cmp	r3, #1
 80037ae:	d80d      	bhi.n	80037cc <USBD_StdItfReq+0x40>
 80037b0:	f8d4 32b4 	ldr.w	r3, [r4, #692]	; 0x2b4
 80037b4:	4629      	mov	r1, r5
 80037b6:	689b      	ldr	r3, [r3, #8]
 80037b8:	4620      	mov	r0, r4
 80037ba:	4798      	blx	r3
 80037bc:	88eb      	ldrh	r3, [r5, #6]
 80037be:	b91b      	cbnz	r3, 80037c8 <USBD_StdItfReq+0x3c>
 80037c0:	b910      	cbnz	r0, 80037c8 <USBD_StdItfReq+0x3c>
 80037c2:	4620      	mov	r0, r4
 80037c4:	f000 f8f3 	bl	80039ae <USBD_CtlSendStatus>
 80037c8:	2000      	movs	r0, #0
 80037ca:	bd38      	pop	{r3, r4, r5, pc}
 80037cc:	4620      	mov	r0, r4
 80037ce:	f7ff feaa 	bl	8003526 <USBD_CtlError.constprop.0>
 80037d2:	e7f9      	b.n	80037c8 <USBD_StdItfReq+0x3c>

080037d4 <USBD_StdEPReq>:
 80037d4:	b538      	push	{r3, r4, r5, lr}
 80037d6:	780a      	ldrb	r2, [r1, #0]
 80037d8:	888d      	ldrh	r5, [r1, #4]
 80037da:	f002 0260 	and.w	r2, r2, #96	; 0x60
 80037de:	2a20      	cmp	r2, #32
 80037e0:	4604      	mov	r4, r0
 80037e2:	460b      	mov	r3, r1
 80037e4:	d02e      	beq.n	8003844 <USBD_StdEPReq+0x70>
 80037e6:	2a40      	cmp	r2, #64	; 0x40
 80037e8:	d02c      	beq.n	8003844 <USBD_StdEPReq+0x70>
 80037ea:	2a00      	cmp	r2, #0
 80037ec:	d138      	bne.n	8003860 <USBD_StdEPReq+0x8c>
 80037ee:	785a      	ldrb	r2, [r3, #1]
 80037f0:	2a01      	cmp	r2, #1
 80037f2:	b2e9      	uxtb	r1, r5
 80037f4:	d044      	beq.n	8003880 <USBD_StdEPReq+0xac>
 80037f6:	2a03      	cmp	r2, #3
 80037f8:	d02c      	beq.n	8003854 <USBD_StdEPReq+0x80>
 80037fa:	bb8a      	cbnz	r2, 8003860 <USBD_StdEPReq+0x8c>
 80037fc:	f890 329c 	ldrb.w	r3, [r0, #668]	; 0x29c
 8003800:	2b02      	cmp	r3, #2
 8003802:	d054      	beq.n	80038ae <USBD_StdEPReq+0xda>
 8003804:	2b03      	cmp	r3, #3
 8003806:	d12b      	bne.n	8003860 <USBD_StdEPReq+0x8c>
 8003808:	f001 030f 	and.w	r3, r1, #15
 800380c:	2214      	movs	r2, #20
 800380e:	f015 0f80 	tst.w	r5, #128	; 0x80
 8003812:	fb02 0303 	mla	r3, r2, r3, r0
 8003816:	d059      	beq.n	80038cc <USBD_StdEPReq+0xf8>
 8003818:	699b      	ldr	r3, [r3, #24]
 800381a:	b30b      	cbz	r3, 8003860 <USBD_StdEPReq+0x8c>
 800381c:	f001 057f 	and.w	r5, r1, #127	; 0x7f
 8003820:	3501      	adds	r5, #1
 8003822:	eb05 0585 	add.w	r5, r5, r5, lsl #2
 8003826:	eb00 0585 	add.w	r5, r0, r5, lsl #2
 800382a:	f011 007f 	ands.w	r0, r1, #127	; 0x7f
 800382e:	d005      	beq.n	800383c <USBD_StdEPReq+0x68>
 8003830:	4620      	mov	r0, r4
 8003832:	f000 fb19 	bl	8003e68 <USBD_LL_IsStallEP>
 8003836:	3800      	subs	r0, #0
 8003838:	bf18      	it	ne
 800383a:	2001      	movne	r0, #1
 800383c:	6028      	str	r0, [r5, #0]
 800383e:	2202      	movs	r2, #2
 8003840:	4629      	mov	r1, r5
 8003842:	e03f      	b.n	80038c4 <USBD_StdEPReq+0xf0>
 8003844:	f8d4 22b4 	ldr.w	r2, [r4, #692]	; 0x2b4
 8003848:	4619      	mov	r1, r3
 800384a:	6892      	ldr	r2, [r2, #8]
 800384c:	4620      	mov	r0, r4
 800384e:	4790      	blx	r2
 8003850:	2000      	movs	r0, #0
 8003852:	bd38      	pop	{r3, r4, r5, pc}
 8003854:	f890 229c 	ldrb.w	r2, [r0, #668]	; 0x29c
 8003858:	2a02      	cmp	r2, #2
 800385a:	d01f      	beq.n	800389c <USBD_StdEPReq+0xc8>
 800385c:	2a03      	cmp	r2, #3
 800385e:	d003      	beq.n	8003868 <USBD_StdEPReq+0x94>
 8003860:	4620      	mov	r0, r4
 8003862:	f7ff fe60 	bl	8003526 <USBD_CtlError.constprop.0>
 8003866:	e7f3      	b.n	8003850 <USBD_StdEPReq+0x7c>
 8003868:	885a      	ldrh	r2, [r3, #2]
 800386a:	b92a      	cbnz	r2, 8003878 <USBD_StdEPReq+0xa4>
 800386c:	064a      	lsls	r2, r1, #25
 800386e:	d003      	beq.n	8003878 <USBD_StdEPReq+0xa4>
 8003870:	88db      	ldrh	r3, [r3, #6]
 8003872:	b90b      	cbnz	r3, 8003878 <USBD_StdEPReq+0xa4>
 8003874:	f000 fae6 	bl	8003e44 <USBD_LL_StallEP>
 8003878:	4620      	mov	r0, r4
 800387a:	f000 f898 	bl	80039ae <USBD_CtlSendStatus>
 800387e:	e7e7      	b.n	8003850 <USBD_StdEPReq+0x7c>
 8003880:	f890 229c 	ldrb.w	r2, [r0, #668]	; 0x29c
 8003884:	2a02      	cmp	r2, #2
 8003886:	d009      	beq.n	800389c <USBD_StdEPReq+0xc8>
 8003888:	2a03      	cmp	r2, #3
 800388a:	d1e9      	bne.n	8003860 <USBD_StdEPReq+0x8c>
 800388c:	885b      	ldrh	r3, [r3, #2]
 800388e:	2b00      	cmp	r3, #0
 8003890:	d1de      	bne.n	8003850 <USBD_StdEPReq+0x7c>
 8003892:	064d      	lsls	r5, r1, #25
 8003894:	d0f0      	beq.n	8003878 <USBD_StdEPReq+0xa4>
 8003896:	f000 fade 	bl	8003e56 <USBD_LL_ClearStallEP>
 800389a:	e7ed      	b.n	8003878 <USBD_StdEPReq+0xa4>
 800389c:	064b      	lsls	r3, r1, #25
 800389e:	d0df      	beq.n	8003860 <USBD_StdEPReq+0x8c>
 80038a0:	f000 fad0 	bl	8003e44 <USBD_LL_StallEP>
 80038a4:	2180      	movs	r1, #128	; 0x80
 80038a6:	4620      	mov	r0, r4
 80038a8:	f000 facc 	bl	8003e44 <USBD_LL_StallEP>
 80038ac:	e7d0      	b.n	8003850 <USBD_StdEPReq+0x7c>
 80038ae:	064a      	lsls	r2, r1, #25
 80038b0:	d1d6      	bne.n	8003860 <USBD_StdEPReq+0x8c>
 80038b2:	062b      	lsls	r3, r5, #24
 80038b4:	bf4c      	ite	mi
 80038b6:	f100 0114 	addmi.w	r1, r0, #20
 80038ba:	f500 71aa 	addpl.w	r1, r0, #340	; 0x154
 80038be:	2300      	movs	r3, #0
 80038c0:	600b      	str	r3, [r1, #0]
 80038c2:	2202      	movs	r2, #2
 80038c4:	4620      	mov	r0, r4
 80038c6:	f000 f848 	bl	800395a <USBD_CtlSendData>
 80038ca:	e7c1      	b.n	8003850 <USBD_StdEPReq+0x7c>
 80038cc:	f8d3 3158 	ldr.w	r3, [r3, #344]	; 0x158
 80038d0:	2b00      	cmp	r3, #0
 80038d2:	d0c5      	beq.n	8003860 <USBD_StdEPReq+0x8c>
 80038d4:	f001 057f 	and.w	r5, r1, #127	; 0x7f
 80038d8:	2314      	movs	r3, #20
 80038da:	fb03 0505 	mla	r5, r3, r5, r0
 80038de:	f505 75aa 	add.w	r5, r5, #340	; 0x154
 80038e2:	e7a2      	b.n	800382a <USBD_StdEPReq+0x56>

080038e4 <USBD_ParseSetupRequest>:
 80038e4:	780b      	ldrb	r3, [r1, #0]
 80038e6:	7003      	strb	r3, [r0, #0]
 80038e8:	784b      	ldrb	r3, [r1, #1]
 80038ea:	7043      	strb	r3, [r0, #1]
 80038ec:	78ca      	ldrb	r2, [r1, #3]
 80038ee:	788b      	ldrb	r3, [r1, #2]
 80038f0:	eb03 2302 	add.w	r3, r3, r2, lsl #8
 80038f4:	8043      	strh	r3, [r0, #2]
 80038f6:	794a      	ldrb	r2, [r1, #5]
 80038f8:	790b      	ldrb	r3, [r1, #4]
 80038fa:	eb03 2302 	add.w	r3, r3, r2, lsl #8
 80038fe:	8083      	strh	r3, [r0, #4]
 8003900:	79ca      	ldrb	r2, [r1, #7]
 8003902:	798b      	ldrb	r3, [r1, #6]
 8003904:	eb03 2302 	add.w	r3, r3, r2, lsl #8
 8003908:	80c3      	strh	r3, [r0, #6]
 800390a:	4770      	bx	lr

0800390c <USBD_CtlError>:
 800390c:	b510      	push	{r4, lr}
 800390e:	2180      	movs	r1, #128	; 0x80
 8003910:	4604      	mov	r4, r0
 8003912:	f000 fa97 	bl	8003e44 <USBD_LL_StallEP>
 8003916:	4620      	mov	r0, r4
 8003918:	2100      	movs	r1, #0
 800391a:	e8bd 4010 	ldmia.w	sp!, {r4, lr}
 800391e:	f000 ba91 	b.w	8003e44 <USBD_LL_StallEP>

08003922 <USBD_GetString>:
 8003922:	b530      	push	{r4, r5, lr}
 8003924:	b188      	cbz	r0, 800394a <USBD_GetString+0x28>
 8003926:	2400      	movs	r4, #0
 8003928:	3801      	subs	r0, #1
 800392a:	4623      	mov	r3, r4
 800392c:	3401      	adds	r4, #1
 800392e:	5d05      	ldrb	r5, [r0, r4]
 8003930:	2d00      	cmp	r5, #0
 8003932:	d1fa      	bne.n	800392a <USBD_GetString+0x8>
 8003934:	b2db      	uxtb	r3, r3
 8003936:	3301      	adds	r3, #1
 8003938:	005b      	lsls	r3, r3, #1
 800393a:	8013      	strh	r3, [r2, #0]
 800393c:	700b      	strb	r3, [r1, #0]
 800393e:	2303      	movs	r3, #3
 8003940:	704b      	strb	r3, [r1, #1]
 8003942:	2302      	movs	r3, #2
 8003944:	f810 4f01 	ldrb.w	r4, [r0, #1]!
 8003948:	b904      	cbnz	r4, 800394c <USBD_GetString+0x2a>
 800394a:	bd30      	pop	{r4, r5, pc}
 800394c:	1c5a      	adds	r2, r3, #1
 800394e:	b2d2      	uxtb	r2, r2
 8003950:	54cc      	strb	r4, [r1, r3]
 8003952:	3302      	adds	r3, #2
 8003954:	548d      	strb	r5, [r1, r2]
 8003956:	b2db      	uxtb	r3, r3
 8003958:	e7f4      	b.n	8003944 <USBD_GetString+0x22>

0800395a <USBD_CtlSendData>:
 800395a:	b510      	push	{r4, lr}
 800395c:	4613      	mov	r3, r2
 800395e:	2202      	movs	r2, #2
 8003960:	e9c0 3307 	strd	r3, r3, [r0, #28]
 8003964:	f8c0 2294 	str.w	r2, [r0, #660]	; 0x294
 8003968:	460a      	mov	r2, r1
 800396a:	2100      	movs	r1, #0
 800396c:	f000 fa98 	bl	8003ea0 <USBD_LL_Transmit>
 8003970:	2000      	movs	r0, #0
 8003972:	bd10      	pop	{r4, pc}

08003974 <USBD_CtlContinueSendData>:
 8003974:	b508      	push	{r3, lr}
 8003976:	4613      	mov	r3, r2
 8003978:	460a      	mov	r2, r1
 800397a:	2100      	movs	r1, #0
 800397c:	f000 fa90 	bl	8003ea0 <USBD_LL_Transmit>
 8003980:	2000      	movs	r0, #0
 8003982:	bd08      	pop	{r3, pc}

08003984 <USBD_CtlPrepareRx>:
 8003984:	b510      	push	{r4, lr}
 8003986:	4613      	mov	r3, r2
 8003988:	2203      	movs	r2, #3
 800398a:	e9c0 3357 	strd	r3, r3, [r0, #348]	; 0x15c
 800398e:	f8c0 2294 	str.w	r2, [r0, #660]	; 0x294
 8003992:	460a      	mov	r2, r1
 8003994:	2100      	movs	r1, #0
 8003996:	f000 fa8c 	bl	8003eb2 <USBD_LL_PrepareReceive>
 800399a:	2000      	movs	r0, #0
 800399c:	bd10      	pop	{r4, pc}

0800399e <USBD_CtlContinueRx>:
 800399e:	b508      	push	{r3, lr}
 80039a0:	4613      	mov	r3, r2
 80039a2:	460a      	mov	r2, r1
 80039a4:	2100      	movs	r1, #0
 80039a6:	f000 fa84 	bl	8003eb2 <USBD_LL_PrepareReceive>
 80039aa:	2000      	movs	r0, #0
 80039ac:	bd08      	pop	{r3, pc}

080039ae <USBD_CtlSendStatus>:
 80039ae:	b508      	push	{r3, lr}
 80039b0:	2304      	movs	r3, #4
 80039b2:	f8c0 3294 	str.w	r3, [r0, #660]	; 0x294
 80039b6:	2300      	movs	r3, #0
 80039b8:	461a      	mov	r2, r3
 80039ba:	4619      	mov	r1, r3
 80039bc:	f000 fa70 	bl	8003ea0 <USBD_LL_Transmit>
 80039c0:	2000      	movs	r0, #0
 80039c2:	bd08      	pop	{r3, pc}

080039c4 <USBD_CtlReceiveStatus>:
 80039c4:	b508      	push	{r3, lr}
 80039c6:	2305      	movs	r3, #5
 80039c8:	f8c0 3294 	str.w	r3, [r0, #660]	; 0x294
 80039cc:	2300      	movs	r3, #0
 80039ce:	461a      	mov	r2, r3
 80039d0:	4619      	mov	r1, r3
 80039d2:	f000 fa6e 	bl	8003eb2 <USBD_LL_PrepareReceive>
 80039d6:	2000      	movs	r0, #0
 80039d8:	bd08      	pop	{r3, pc}
	...

080039dc <MX_USB_DEVICE_Init>:
 80039dc:	b508      	push	{r3, lr}
 80039de:	490f      	ldr	r1, [pc, #60]	; (8003a1c <MX_USB_DEVICE_Init+0x40>)
 80039e0:	480f      	ldr	r0, [pc, #60]	; (8003a20 <MX_USB_DEVICE_Init+0x44>)
 80039e2:	2200      	movs	r2, #0
 80039e4:	f7ff fc5f 	bl	80032a6 <USBD_Init>
 80039e8:	b108      	cbz	r0, 80039ee <MX_USB_DEVICE_Init+0x12>
 80039ea:	f7fc fc97 	bl	800031c <Error_Handler>
 80039ee:	490d      	ldr	r1, [pc, #52]	; (8003a24 <MX_USB_DEVICE_Init+0x48>)
 80039f0:	480b      	ldr	r0, [pc, #44]	; (8003a20 <MX_USB_DEVICE_Init+0x44>)
 80039f2:	f7ff fc6d 	bl	80032d0 <USBD_RegisterClass>
 80039f6:	b108      	cbz	r0, 80039fc <MX_USB_DEVICE_Init+0x20>
 80039f8:	f7fc fc90 	bl	800031c <Error_Handler>
 80039fc:	490a      	ldr	r1, [pc, #40]	; (8003a28 <MX_USB_DEVICE_Init+0x4c>)
 80039fe:	4808      	ldr	r0, [pc, #32]	; (8003a20 <MX_USB_DEVICE_Init+0x44>)
 8003a00:	f7ff fc0c 	bl	800321c <USBD_CDC_RegisterInterface>
 8003a04:	b108      	cbz	r0, 8003a0a <MX_USB_DEVICE_Init+0x2e>
 8003a06:	f7fc fc89 	bl	800031c <Error_Handler>
 8003a0a:	4805      	ldr	r0, [pc, #20]	; (8003a20 <MX_USB_DEVICE_Init+0x44>)
 8003a0c:	f7ff fc67 	bl	80032de <USBD_Start>
 8003a10:	b118      	cbz	r0, 8003a1a <MX_USB_DEVICE_Init+0x3e>
 8003a12:	e8bd 4008 	ldmia.w	sp!, {r3, lr}
 8003a16:	f7fc bc81 	b.w	800031c <Error_Handler>
 8003a1a:	bd08      	pop	{r3, pc}
 8003a1c:	20000180 	.word	0x20000180
 8003a20:	20000238 	.word	0x20000238
 8003a24:	20000054 	.word	0x20000054
 8003a28:	20000164 	.word	0x20000164

08003a2c <CDC_DeInit_FS>:
 8003a2c:	2000      	movs	r0, #0
 8003a2e:	4770      	bx	lr

08003a30 <CDC_Receive_FS>:
 8003a30:	e92d 41f0 	stmdb	sp!, {r4, r5, r6, r7, r8, lr}
 8003a34:	4605      	mov	r5, r0
 8003a36:	460f      	mov	r7, r1
 8003a38:	4601      	mov	r1, r0
 8003a3a:	481d      	ldr	r0, [pc, #116]	; (8003ab0 <CDC_Receive_FS+0x80>)
 8003a3c:	4e1d      	ldr	r6, [pc, #116]	; (8003ab4 <CDC_Receive_FS+0x84>)
 8003a3e:	f8df 8080 	ldr.w	r8, [pc, #128]	; 8003ac0 <CDC_Receive_FS+0x90>
 8003a42:	f7ff fbfa 	bl	800323a <USBD_CDC_SetRxBuffer>
 8003a46:	481a      	ldr	r0, [pc, #104]	; (8003ab0 <CDC_Receive_FS+0x80>)
 8003a48:	f7ff fc16 	bl	8003278 <USBD_CDC_ReceivePacket>
 8003a4c:	2400      	movs	r4, #0
 8003a4e:	683b      	ldr	r3, [r7, #0]
 8003a50:	42a3      	cmp	r3, r4
 8003a52:	d802      	bhi.n	8003a5a <CDC_Receive_FS+0x2a>
 8003a54:	2000      	movs	r0, #0
 8003a56:	e8bd 81f0 	ldmia.w	sp!, {r4, r5, r6, r7, r8, pc}
 8003a5a:	7833      	ldrb	r3, [r6, #0]
 8003a5c:	4a16      	ldr	r2, [pc, #88]	; (8003ab8 <CDC_Receive_FS+0x88>)
 8003a5e:	3b01      	subs	r3, #1
 8003a60:	b2db      	uxtb	r3, r3
 8003a62:	7033      	strb	r3, [r6, #0]
 8003a64:	5d29      	ldrb	r1, [r5, r4]
 8003a66:	b971      	cbnz	r1, 8003a86 <CDC_Receive_FS+0x56>
 8003a68:	2001      	movs	r0, #1
 8003a6a:	7010      	strb	r0, [r2, #0]
 8003a6c:	b94b      	cbnz	r3, 8003a82 <CDC_Receive_FS+0x52>
 8003a6e:	f898 1000 	ldrb.w	r1, [r8]
 8003a72:	4812      	ldr	r0, [pc, #72]	; (8003abc <CDC_Receive_FS+0x8c>)
 8003a74:	f7fc fc1e 	bl	80002b4 <usb_process>
 8003a78:	2300      	movs	r3, #0
 8003a7a:	f888 3000 	strb.w	r3, [r8]
 8003a7e:	3401      	adds	r4, #1
 8003a80:	e7e5      	b.n	8003a4e <CDC_Receive_FS+0x1e>
 8003a82:	7031      	strb	r1, [r6, #0]
 8003a84:	e7f8      	b.n	8003a78 <CDC_Receive_FS+0x48>
 8003a86:	7810      	ldrb	r0, [r2, #0]
 8003a88:	2801      	cmp	r0, #1
 8003a8a:	d103      	bne.n	8003a94 <CDC_Receive_FS+0x64>
 8003a8c:	2300      	movs	r3, #0
 8003a8e:	7031      	strb	r1, [r6, #0]
 8003a90:	7013      	strb	r3, [r2, #0]
 8003a92:	e7f4      	b.n	8003a7e <CDC_Receive_FS+0x4e>
 8003a94:	f898 2000 	ldrb.w	r2, [r8]
 8003a98:	4808      	ldr	r0, [pc, #32]	; (8003abc <CDC_Receive_FS+0x8c>)
 8003a9a:	b933      	cbnz	r3, 8003aaa <CDC_Receive_FS+0x7a>
 8003a9c:	5483      	strb	r3, [r0, r2]
 8003a9e:	5d2b      	ldrb	r3, [r5, r4]
 8003aa0:	7033      	strb	r3, [r6, #0]
 8003aa2:	3201      	adds	r2, #1
 8003aa4:	f888 2000 	strb.w	r2, [r8]
 8003aa8:	e7e9      	b.n	8003a7e <CDC_Receive_FS+0x4e>
 8003aaa:	5481      	strb	r1, [r0, r2]
 8003aac:	e7f9      	b.n	8003aa2 <CDC_Receive_FS+0x72>
 8003aae:	bf00      	nop
 8003ab0:	20000238 	.word	0x20000238
 8003ab4:	2000017c 	.word	0x2000017c
 8003ab8:	20000d3d 	.word	0x20000d3d
 8003abc:	200004fc 	.word	0x200004fc
 8003ac0:	20000d3c 	.word	0x20000d3c

08003ac4 <CDC_Control_FS>:
 8003ac4:	2820      	cmp	r0, #32
 8003ac6:	b510      	push	{r4, lr}
 8003ac8:	460c      	mov	r4, r1
 8003aca:	d003      	beq.n	8003ad4 <CDC_Control_FS+0x10>
 8003acc:	2821      	cmp	r0, #33	; 0x21
 8003ace:	d010      	beq.n	8003af2 <CDC_Control_FS+0x2e>
 8003ad0:	2000      	movs	r0, #0
 8003ad2:	bd10      	pop	{r4, pc}
 8003ad4:	2201      	movs	r2, #1
 8003ad6:	4601      	mov	r1, r0
 8003ad8:	4811      	ldr	r0, [pc, #68]	; (8003b20 <CDC_Control_FS+0x5c>)
 8003ada:	f7fd fa9b 	bl	8001014 <HAL_GPIO_WritePin>
 8003ade:	4b11      	ldr	r3, [pc, #68]	; (8003b24 <CDC_Control_FS+0x60>)
 8003ae0:	6822      	ldr	r2, [r4, #0]
 8003ae2:	601a      	str	r2, [r3, #0]
 8003ae4:	7922      	ldrb	r2, [r4, #4]
 8003ae6:	711a      	strb	r2, [r3, #4]
 8003ae8:	7962      	ldrb	r2, [r4, #5]
 8003aea:	715a      	strb	r2, [r3, #5]
 8003aec:	79a2      	ldrb	r2, [r4, #6]
 8003aee:	719a      	strb	r2, [r3, #6]
 8003af0:	e7ee      	b.n	8003ad0 <CDC_Control_FS+0xc>
 8003af2:	2201      	movs	r2, #1
 8003af4:	480a      	ldr	r0, [pc, #40]	; (8003b20 <CDC_Control_FS+0x5c>)
 8003af6:	2120      	movs	r1, #32
 8003af8:	f7fd fa8c 	bl	8001014 <HAL_GPIO_WritePin>
 8003afc:	4b09      	ldr	r3, [pc, #36]	; (8003b24 <CDC_Control_FS+0x60>)
 8003afe:	681a      	ldr	r2, [r3, #0]
 8003b00:	7022      	strb	r2, [r4, #0]
 8003b02:	681a      	ldr	r2, [r3, #0]
 8003b04:	0a12      	lsrs	r2, r2, #8
 8003b06:	7062      	strb	r2, [r4, #1]
 8003b08:	885a      	ldrh	r2, [r3, #2]
 8003b0a:	70a2      	strb	r2, [r4, #2]
 8003b0c:	78da      	ldrb	r2, [r3, #3]
 8003b0e:	70e2      	strb	r2, [r4, #3]
 8003b10:	791a      	ldrb	r2, [r3, #4]
 8003b12:	7122      	strb	r2, [r4, #4]
 8003b14:	795a      	ldrb	r2, [r3, #5]
 8003b16:	7162      	strb	r2, [r4, #5]
 8003b18:	799b      	ldrb	r3, [r3, #6]
 8003b1a:	71a3      	strb	r3, [r4, #6]
 8003b1c:	e7d8      	b.n	8003ad0 <CDC_Control_FS+0xc>
 8003b1e:	bf00      	nop
 8003b20:	48000400 	.word	0x48000400
 8003b24:	20000174 	.word	0x20000174

08003b28 <CDC_Init_FS>:
 8003b28:	b510      	push	{r4, lr}
 8003b2a:	4c06      	ldr	r4, [pc, #24]	; (8003b44 <CDC_Init_FS+0x1c>)
 8003b2c:	4906      	ldr	r1, [pc, #24]	; (8003b48 <CDC_Init_FS+0x20>)
 8003b2e:	2200      	movs	r2, #0
 8003b30:	4620      	mov	r0, r4
 8003b32:	f7ff fb7a 	bl	800322a <USBD_CDC_SetTxBuffer>
 8003b36:	4905      	ldr	r1, [pc, #20]	; (8003b4c <CDC_Init_FS+0x24>)
 8003b38:	4620      	mov	r0, r4
 8003b3a:	f7ff fb7e 	bl	800323a <USBD_CDC_SetRxBuffer>
 8003b3e:	2000      	movs	r0, #0
 8003b40:	bd10      	pop	{r4, pc}
 8003b42:	bf00      	nop
 8003b44:	20000238 	.word	0x20000238
 8003b48:	2000093c 	.word	0x2000093c
 8003b4c:	2000053c 	.word	0x2000053c

08003b50 <CDC_Transmit_FS>:
 8003b50:	b510      	push	{r4, lr}
 8003b52:	4c09      	ldr	r4, [pc, #36]	; (8003b78 <CDC_Transmit_FS+0x28>)
 8003b54:	f8d4 32b8 	ldr.w	r3, [r4, #696]	; 0x2b8
 8003b58:	f8d3 3214 	ldr.w	r3, [r3, #532]	; 0x214
 8003b5c:	460a      	mov	r2, r1
 8003b5e:	b943      	cbnz	r3, 8003b72 <CDC_Transmit_FS+0x22>
 8003b60:	4601      	mov	r1, r0
 8003b62:	4620      	mov	r0, r4
 8003b64:	f7ff fb61 	bl	800322a <USBD_CDC_SetTxBuffer>
 8003b68:	4620      	mov	r0, r4
 8003b6a:	e8bd 4010 	ldmia.w	sp!, {r4, lr}
 8003b6e:	f7ff bb6a 	b.w	8003246 <USBD_CDC_TransmitPacket>
 8003b72:	2001      	movs	r0, #1
 8003b74:	bd10      	pop	{r4, pc}
 8003b76:	bf00      	nop
 8003b78:	20000238 	.word	0x20000238

08003b7c <USBD_FS_DeviceDescriptor>:
 8003b7c:	2312      	movs	r3, #18
 8003b7e:	4801      	ldr	r0, [pc, #4]	; (8003b84 <USBD_FS_DeviceDescriptor+0x8>)
 8003b80:	800b      	strh	r3, [r1, #0]
 8003b82:	4770      	bx	lr
 8003b84:	2000019c 	.word	0x2000019c

08003b88 <USBD_FS_LangIDStrDescriptor>:
 8003b88:	2304      	movs	r3, #4
 8003b8a:	4801      	ldr	r0, [pc, #4]	; (8003b90 <USBD_FS_LangIDStrDescriptor+0x8>)
 8003b8c:	800b      	strh	r3, [r1, #0]
 8003b8e:	4770      	bx	lr
 8003b90:	200001b0 	.word	0x200001b0

08003b94 <IntToUnicode>:
 8003b94:	2300      	movs	r3, #0
 8003b96:	b570      	push	{r4, r5, r6, lr}
 8003b98:	1c4d      	adds	r5, r1, #1
 8003b9a:	461e      	mov	r6, r3
 8003b9c:	0f04      	lsrs	r4, r0, #28
 8003b9e:	f1b0 4f20 	cmp.w	r0, #2684354560	; 0xa0000000
 8003ba2:	bf34      	ite	cc
 8003ba4:	3430      	addcc	r4, #48	; 0x30
 8003ba6:	3437      	addcs	r4, #55	; 0x37
 8003ba8:	f801 4013 	strb.w	r4, [r1, r3, lsl #1]
 8003bac:	f805 6013 	strb.w	r6, [r5, r3, lsl #1]
 8003bb0:	3301      	adds	r3, #1
 8003bb2:	b2dc      	uxtb	r4, r3
 8003bb4:	42a2      	cmp	r2, r4
 8003bb6:	ea4f 1000 	mov.w	r0, r0, lsl #4
 8003bba:	d8ef      	bhi.n	8003b9c <IntToUnicode+0x8>
 8003bbc:	bd70      	pop	{r4, r5, r6, pc}
	...

08003bc0 <USBD_FS_SerialStrDescriptor>:
 8003bc0:	231a      	movs	r3, #26
 8003bc2:	b510      	push	{r4, lr}
 8003bc4:	800b      	strh	r3, [r1, #0]
 8003bc6:	4b0a      	ldr	r3, [pc, #40]	; (8003bf0 <USBD_FS_SerialStrDescriptor+0x30>)
 8003bc8:	f8d3 07ac 	ldr.w	r0, [r3, #1964]	; 0x7ac
 8003bcc:	f8d3 27b4 	ldr.w	r2, [r3, #1972]	; 0x7b4
 8003bd0:	1880      	adds	r0, r0, r2
 8003bd2:	d00a      	beq.n	8003bea <USBD_FS_SerialStrDescriptor+0x2a>
 8003bd4:	f8d3 47b0 	ldr.w	r4, [r3, #1968]	; 0x7b0
 8003bd8:	4906      	ldr	r1, [pc, #24]	; (8003bf4 <USBD_FS_SerialStrDescriptor+0x34>)
 8003bda:	2208      	movs	r2, #8
 8003bdc:	f7ff ffda 	bl	8003b94 <IntToUnicode>
 8003be0:	2204      	movs	r2, #4
 8003be2:	3110      	adds	r1, #16
 8003be4:	4620      	mov	r0, r4
 8003be6:	f7ff ffd5 	bl	8003b94 <IntToUnicode>
 8003bea:	4803      	ldr	r0, [pc, #12]	; (8003bf8 <USBD_FS_SerialStrDescriptor+0x38>)
 8003bec:	bd10      	pop	{r4, pc}
 8003bee:	bf00      	nop
 8003bf0:	1ffff000 	.word	0x1ffff000
 8003bf4:	200001b6 	.word	0x200001b6
 8003bf8:	200001b4 	.word	0x200001b4

08003bfc <USBD_FS_ManufacturerStrDescriptor>:
 8003bfc:	b510      	push	{r4, lr}
 8003bfe:	4c04      	ldr	r4, [pc, #16]	; (8003c10 <USBD_FS_ManufacturerStrDescriptor+0x14>)
 8003c00:	4804      	ldr	r0, [pc, #16]	; (8003c14 <USBD_FS_ManufacturerStrDescriptor+0x18>)
 8003c02:	460a      	mov	r2, r1
 8003c04:	4621      	mov	r1, r4
 8003c06:	f7ff fe8c 	bl	8003922 <USBD_GetString>
 8003c0a:	4620      	mov	r0, r4
 8003c0c:	bd10      	pop	{r4, pc}
 8003c0e:	bf00      	nop
 8003c10:	20000d40 	.word	0x20000d40
 8003c14:	08003f8c 	.word	0x08003f8c

08003c18 <USBD_FS_ProductStrDescriptor>:
 8003c18:	b510      	push	{r4, lr}
 8003c1a:	4c04      	ldr	r4, [pc, #16]	; (8003c2c <USBD_FS_ProductStrDescriptor+0x14>)
 8003c1c:	4804      	ldr	r0, [pc, #16]	; (8003c30 <USBD_FS_ProductStrDescriptor+0x18>)
 8003c1e:	460a      	mov	r2, r1
 8003c20:	4621      	mov	r1, r4
 8003c22:	f7ff fe7e 	bl	8003922 <USBD_GetString>
 8003c26:	4620      	mov	r0, r4
 8003c28:	bd10      	pop	{r4, pc}
 8003c2a:	bf00      	nop
 8003c2c:	20000d40 	.word	0x20000d40
 8003c30:	08003f90 	.word	0x08003f90

08003c34 <USBD_FS_ConfigStrDescriptor>:
 8003c34:	b510      	push	{r4, lr}
 8003c36:	4c04      	ldr	r4, [pc, #16]	; (8003c48 <USBD_FS_ConfigStrDescriptor+0x14>)
 8003c38:	4804      	ldr	r0, [pc, #16]	; (8003c4c <USBD_FS_ConfigStrDescriptor+0x18>)
 8003c3a:	460a      	mov	r2, r1
 8003c3c:	4621      	mov	r1, r4
 8003c3e:	f7ff fe70 	bl	8003922 <USBD_GetString>
 8003c42:	4620      	mov	r0, r4
 8003c44:	bd10      	pop	{r4, pc}
 8003c46:	bf00      	nop
 8003c48:	20000d40 	.word	0x20000d40
 8003c4c:	08003fa6 	.word	0x08003fa6

08003c50 <USBD_FS_InterfaceStrDescriptor>:
 8003c50:	b510      	push	{r4, lr}
 8003c52:	4c04      	ldr	r4, [pc, #16]	; (8003c64 <USBD_FS_InterfaceStrDescriptor+0x14>)
 8003c54:	4804      	ldr	r0, [pc, #16]	; (8003c68 <USBD_FS_InterfaceStrDescriptor+0x18>)
 8003c56:	460a      	mov	r2, r1
 8003c58:	4621      	mov	r1, r4
 8003c5a:	f7ff fe62 	bl	8003922 <USBD_GetString>
 8003c5e:	4620      	mov	r0, r4
 8003c60:	bd10      	pop	{r4, pc}
 8003c62:	bf00      	nop
 8003c64:	20000d40 	.word	0x20000d40
 8003c68:	08003fb1 	.word	0x08003fb1

08003c6c <USBD_Get_USB_Status>:
 8003c6c:	2803      	cmp	r0, #3
 8003c6e:	bf9a      	itte	ls
 8003c70:	4b01      	ldrls	r3, [pc, #4]	; (8003c78 <USBD_Get_USB_Status+0xc>)
 8003c72:	5c18      	ldrbls	r0, [r3, r0]
 8003c74:	2002      	movhi	r0, #2
 8003c76:	4770      	bx	lr
 8003c78:	08003fbf 	.word	0x08003fbf

08003c7c <HAL_PCD_MspInit>:
 8003c7c:	b510      	push	{r4, lr}
 8003c7e:	4604      	mov	r4, r0
 8003c80:	b088      	sub	sp, #32
 8003c82:	2214      	movs	r2, #20
 8003c84:	2100      	movs	r1, #0
 8003c86:	a803      	add	r0, sp, #12
 8003c88:	f000 f92f 	bl	8003eea <memset>
 8003c8c:	6822      	ldr	r2, [r4, #0]
 8003c8e:	4b19      	ldr	r3, [pc, #100]	; (8003cf4 <HAL_PCD_MspInit+0x78>)
 8003c90:	429a      	cmp	r2, r3
 8003c92:	d12d      	bne.n	8003cf0 <HAL_PCD_MspInit+0x74>
 8003c94:	4c18      	ldr	r4, [pc, #96]	; (8003cf8 <HAL_PCD_MspInit+0x7c>)
 8003c96:	6963      	ldr	r3, [r4, #20]
 8003c98:	f443 3300 	orr.w	r3, r3, #131072	; 0x20000
 8003c9c:	6163      	str	r3, [r4, #20]
 8003c9e:	6963      	ldr	r3, [r4, #20]
 8003ca0:	f403 3300 	and.w	r3, r3, #131072	; 0x20000
 8003ca4:	9301      	str	r3, [sp, #4]
 8003ca6:	f44f 52c0 	mov.w	r2, #6144	; 0x1800
 8003caa:	9b01      	ldr	r3, [sp, #4]
 8003cac:	2302      	movs	r3, #2
 8003cae:	e9cd 2303 	strd	r2, r3, [sp, #12]
 8003cb2:	2103      	movs	r1, #3
 8003cb4:	230e      	movs	r3, #14
 8003cb6:	e9cd 1306 	strd	r1, r3, [sp, #24]
 8003cba:	f04f 4090 	mov.w	r0, #1207959552	; 0x48000000
 8003cbe:	a903      	add	r1, sp, #12
 8003cc0:	f7fd f8de 	bl	8000e80 <HAL_GPIO_Init>
 8003cc4:	69e3      	ldr	r3, [r4, #28]
 8003cc6:	4a0d      	ldr	r2, [pc, #52]	; (8003cfc <HAL_PCD_MspInit+0x80>)
 8003cc8:	f443 0300 	orr.w	r3, r3, #8388608	; 0x800000
 8003ccc:	61e3      	str	r3, [r4, #28]
 8003cce:	69e3      	ldr	r3, [r4, #28]
 8003cd0:	f403 0300 	and.w	r3, r3, #8388608	; 0x800000
 8003cd4:	9302      	str	r3, [sp, #8]
 8003cd6:	9b02      	ldr	r3, [sp, #8]
 8003cd8:	6813      	ldr	r3, [r2, #0]
 8003cda:	f043 0320 	orr.w	r3, r3, #32
 8003cde:	6013      	str	r3, [r2, #0]
 8003ce0:	204b      	movs	r0, #75	; 0x4b
 8003ce2:	2200      	movs	r2, #0
 8003ce4:	2101      	movs	r1, #1
 8003ce6:	f7fd f877 	bl	8000dd8 <HAL_NVIC_SetPriority>
 8003cea:	204b      	movs	r0, #75	; 0x4b
 8003cec:	f7fd f8a6 	bl	8000e3c <HAL_NVIC_EnableIRQ>
 8003cf0:	b008      	add	sp, #32
 8003cf2:	bd10      	pop	{r4, pc}
 8003cf4:	40005c00 	.word	0x40005c00
 8003cf8:	40021000 	.word	0x40021000
 8003cfc:	40010000 	.word	0x40010000

08003d00 <HAL_PCD_SetupStageCallback>:
 8003d00:	f500 712c 	add.w	r1, r0, #688	; 0x2b0
 8003d04:	f8d0 02e8 	ldr.w	r0, [r0, #744]	; 0x2e8
 8003d08:	f7ff bb02 	b.w	8003310 <USBD_LL_SetupStage>

08003d0c <HAL_PCD_DataOutStageCallback>:
 8003d0c:	2328      	movs	r3, #40	; 0x28
 8003d0e:	fb03 0301 	mla	r3, r3, r1, r0
 8003d12:	f8d0 02e8 	ldr.w	r0, [r0, #744]	; 0x2e8
 8003d16:	f8d3 217c 	ldr.w	r2, [r3, #380]	; 0x17c
 8003d1a:	f7ff bb26 	b.w	800336a <USBD_LL_DataOutStage>

08003d1e <HAL_PCD_DataInStageCallback>:
 8003d1e:	2328      	movs	r3, #40	; 0x28
 8003d20:	fb03 0301 	mla	r3, r3, r1, r0
 8003d24:	f8d0 02e8 	ldr.w	r0, [r0, #744]	; 0x2e8
 8003d28:	6bda      	ldr	r2, [r3, #60]	; 0x3c
 8003d2a:	f7ff bb58 	b.w	80033de <USBD_LL_DataInStage>

08003d2e <HAL_PCD_SOFCallback>:
 8003d2e:	f8d0 02e8 	ldr.w	r0, [r0, #744]	; 0x2e8
 8003d32:	f7ff bbec 	b.w	800350e <USBD_LL_SOF>

08003d36 <HAL_PCD_ResetCallback>:
 8003d36:	6883      	ldr	r3, [r0, #8]
 8003d38:	2b02      	cmp	r3, #2
 8003d3a:	b510      	push	{r4, lr}
 8003d3c:	4604      	mov	r4, r0
 8003d3e:	d001      	beq.n	8003d44 <HAL_PCD_ResetCallback+0xe>
 8003d40:	f7fc faec 	bl	800031c <Error_Handler>
 8003d44:	f8d4 02e8 	ldr.w	r0, [r4, #744]	; 0x2e8
 8003d48:	2101      	movs	r1, #1
 8003d4a:	f7ff fbca 	bl	80034e2 <USBD_LL_SetSpeed>
 8003d4e:	f8d4 02e8 	ldr.w	r0, [r4, #744]	; 0x2e8
 8003d52:	e8bd 4010 	ldmia.w	sp!, {r4, lr}
 8003d56:	f7ff bb9d 	b.w	8003494 <USBD_LL_Reset>
	...

08003d5c <HAL_PCD_SuspendCallback>:
 8003d5c:	b510      	push	{r4, lr}
 8003d5e:	4604      	mov	r4, r0
 8003d60:	f8d0 02e8 	ldr.w	r0, [r0, #744]	; 0x2e8
 8003d64:	f7ff fbc0 	bl	80034e8 <USBD_LL_Suspend>
 8003d68:	69a3      	ldr	r3, [r4, #24]
 8003d6a:	b123      	cbz	r3, 8003d76 <HAL_PCD_SuspendCallback+0x1a>
 8003d6c:	4a02      	ldr	r2, [pc, #8]	; (8003d78 <HAL_PCD_SuspendCallback+0x1c>)
 8003d6e:	6913      	ldr	r3, [r2, #16]
 8003d70:	f043 0306 	orr.w	r3, r3, #6
 8003d74:	6113      	str	r3, [r2, #16]
 8003d76:	bd10      	pop	{r4, pc}
 8003d78:	e000ed00 	.word	0xe000ed00

08003d7c <HAL_PCD_ResumeCallback>:
 8003d7c:	f8d0 02e8 	ldr.w	r0, [r0, #744]	; 0x2e8
 8003d80:	f7ff bbbb 	b.w	80034fa <USBD_LL_Resume>

08003d84 <USBD_LL_Init>:
 8003d84:	b510      	push	{r4, lr}
 8003d86:	4a1e      	ldr	r2, [pc, #120]	; (8003e00 <USBD_LL_Init+0x7c>)
 8003d88:	4604      	mov	r4, r0
 8003d8a:	481e      	ldr	r0, [pc, #120]	; (8003e04 <USBD_LL_Init+0x80>)
 8003d8c:	2308      	movs	r3, #8
 8003d8e:	e9c0 2300 	strd	r2, r3, [r0]
 8003d92:	2302      	movs	r3, #2
 8003d94:	f8c0 42e8 	str.w	r4, [r0, #744]	; 0x2e8
 8003d98:	6083      	str	r3, [r0, #8]
 8003d9a:	6103      	str	r3, [r0, #16]
 8003d9c:	f8c4 02c0 	str.w	r0, [r4, #704]	; 0x2c0
 8003da0:	2300      	movs	r3, #0
 8003da2:	6183      	str	r3, [r0, #24]
 8003da4:	6203      	str	r3, [r0, #32]
 8003da6:	f7fd f947 	bl	8001038 <HAL_PCD_Init>
 8003daa:	b108      	cbz	r0, 8003db0 <USBD_LL_Init+0x2c>
 8003dac:	f7fc fab6 	bl	800031c <Error_Handler>
 8003db0:	2200      	movs	r2, #0
 8003db2:	4611      	mov	r1, r2
 8003db4:	f8d4 02c0 	ldr.w	r0, [r4, #704]	; 0x2c0
 8003db8:	2318      	movs	r3, #24
 8003dba:	f7fd ff7f 	bl	8001cbc <HAL_PCDEx_PMAConfig>
 8003dbe:	f8d4 02c0 	ldr.w	r0, [r4, #704]	; 0x2c0
 8003dc2:	2358      	movs	r3, #88	; 0x58
 8003dc4:	2200      	movs	r2, #0
 8003dc6:	2180      	movs	r1, #128	; 0x80
 8003dc8:	f7fd ff78 	bl	8001cbc <HAL_PCDEx_PMAConfig>
 8003dcc:	f8d4 02c0 	ldr.w	r0, [r4, #704]	; 0x2c0
 8003dd0:	23c0      	movs	r3, #192	; 0xc0
 8003dd2:	2200      	movs	r2, #0
 8003dd4:	2181      	movs	r1, #129	; 0x81
 8003dd6:	f7fd ff71 	bl	8001cbc <HAL_PCDEx_PMAConfig>
 8003dda:	f8d4 02c0 	ldr.w	r0, [r4, #704]	; 0x2c0
 8003dde:	f44f 7388 	mov.w	r3, #272	; 0x110
 8003de2:	2200      	movs	r2, #0
 8003de4:	2101      	movs	r1, #1
 8003de6:	f7fd ff69 	bl	8001cbc <HAL_PCDEx_PMAConfig>
 8003dea:	f8d4 02c0 	ldr.w	r0, [r4, #704]	; 0x2c0
 8003dee:	f44f 7380 	mov.w	r3, #256	; 0x100
 8003df2:	2200      	movs	r2, #0
 8003df4:	2182      	movs	r1, #130	; 0x82
 8003df6:	f7fd ff61 	bl	8001cbc <HAL_PCDEx_PMAConfig>
 8003dfa:	2000      	movs	r0, #0
 8003dfc:	bd10      	pop	{r4, pc}
 8003dfe:	bf00      	nop
 8003e00:	40005c00 	.word	0x40005c00
 8003e04:	20000f40 	.word	0x20000f40

08003e08 <USBD_LL_Start>:
 8003e08:	b508      	push	{r3, lr}
 8003e0a:	f8d0 02c0 	ldr.w	r0, [r0, #704]	; 0x2c0
 8003e0e:	f7fd f968 	bl	80010e2 <HAL_PCD_Start>
 8003e12:	e8bd 4008 	ldmia.w	sp!, {r3, lr}
 8003e16:	f7ff bf29 	b.w	8003c6c <USBD_Get_USB_Status>

08003e1a <USBD_LL_OpenEP>:
 8003e1a:	b510      	push	{r4, lr}
 8003e1c:	4614      	mov	r4, r2
 8003e1e:	f8d0 02c0 	ldr.w	r0, [r0, #704]	; 0x2c0
 8003e22:	461a      	mov	r2, r3
 8003e24:	4623      	mov	r3, r4
 8003e26:	f7fd fe53 	bl	8001ad0 <HAL_PCD_EP_Open>
 8003e2a:	e8bd 4010 	ldmia.w	sp!, {r4, lr}
 8003e2e:	f7ff bf1d 	b.w	8003c6c <USBD_Get_USB_Status>

08003e32 <USBD_LL_CloseEP>:
 8003e32:	b508      	push	{r3, lr}
 8003e34:	f8d0 02c0 	ldr.w	r0, [r0, #704]	; 0x2c0
 8003e38:	f7fd fe79 	bl	8001b2e <HAL_PCD_EP_Close>
 8003e3c:	e8bd 4008 	ldmia.w	sp!, {r3, lr}
 8003e40:	f7ff bf14 	b.w	8003c6c <USBD_Get_USB_Status>

08003e44 <USBD_LL_StallEP>:
 8003e44:	b508      	push	{r3, lr}
 8003e46:	f8d0 02c0 	ldr.w	r0, [r0, #704]	; 0x2c0
 8003e4a:	f7fd fed5 	bl	8001bf8 <HAL_PCD_EP_SetStall>
 8003e4e:	e8bd 4008 	ldmia.w	sp!, {r3, lr}
 8003e52:	f7ff bf0b 	b.w	8003c6c <USBD_Get_USB_Status>

08003e56 <USBD_LL_ClearStallEP>:
 8003e56:	b508      	push	{r3, lr}
 8003e58:	f8d0 02c0 	ldr.w	r0, [r0, #704]	; 0x2c0
 8003e5c:	f7fd fefc 	bl	8001c58 <HAL_PCD_EP_ClrStall>
 8003e60:	e8bd 4008 	ldmia.w	sp!, {r3, lr}
 8003e64:	f7ff bf02 	b.w	8003c6c <USBD_Get_USB_Status>

08003e68 <USBD_LL_IsStallEP>:
 8003e68:	f011 0f80 	tst.w	r1, #128	; 0x80
 8003e6c:	f8d0 32c0 	ldr.w	r3, [r0, #704]	; 0x2c0
 8003e70:	f04f 0228 	mov.w	r2, #40	; 0x28
 8003e74:	bf1d      	ittte	ne
 8003e76:	f001 017f 	andne.w	r1, r1, #127	; 0x7f
 8003e7a:	fb01 2202 	mlane	r2, r1, r2, r2
 8003e7e:	189b      	addne	r3, r3, r2
 8003e80:	fb02 3301 	mlaeq	r3, r2, r1, r3
 8003e84:	bf14      	ite	ne
 8003e86:	7898      	ldrbne	r0, [r3, #2]
 8003e88:	f893 016a 	ldrbeq.w	r0, [r3, #362]	; 0x16a
 8003e8c:	4770      	bx	lr

08003e8e <USBD_LL_SetUSBAddress>:
 8003e8e:	b508      	push	{r3, lr}
 8003e90:	f8d0 02c0 	ldr.w	r0, [r0, #704]	; 0x2c0
 8003e94:	f7fd f93e 	bl	8001114 <HAL_PCD_SetAddress>
 8003e98:	e8bd 4008 	ldmia.w	sp!, {r3, lr}
 8003e9c:	f7ff bee6 	b.w	8003c6c <USBD_Get_USB_Status>

08003ea0 <USBD_LL_Transmit>:
 8003ea0:	b508      	push	{r3, lr}
 8003ea2:	f8d0 02c0 	ldr.w	r0, [r0, #704]	; 0x2c0
 8003ea6:	f7fd fe89 	bl	8001bbc <HAL_PCD_EP_Transmit>
 8003eaa:	e8bd 4008 	ldmia.w	sp!, {r3, lr}
 8003eae:	f7ff bedd 	b.w	8003c6c <USBD_Get_USB_Status>

08003eb2 <USBD_LL_PrepareReceive>:
 8003eb2:	b508      	push	{r3, lr}
 8003eb4:	f8d0 02c0 	ldr.w	r0, [r0, #704]	; 0x2c0
 8003eb8:	f7fd fe62 	bl	8001b80 <HAL_PCD_EP_Receive>
 8003ebc:	e8bd 4008 	ldmia.w	sp!, {r3, lr}
 8003ec0:	f7ff bed4 	b.w	8003c6c <USBD_Get_USB_Status>

08003ec4 <USBD_LL_GetRxDataSize>:
 8003ec4:	f8d0 02c0 	ldr.w	r0, [r0, #704]	; 0x2c0
 8003ec8:	f7fd be70 	b.w	8001bac <HAL_PCD_EP_GetRxCount>

08003ecc <USBD_static_malloc>:
 8003ecc:	4800      	ldr	r0, [pc, #0]	; (8003ed0 <USBD_static_malloc+0x4>)
 8003ece:	4770      	bx	lr
 8003ed0:	2000122c 	.word	0x2000122c

08003ed4 <USBD_static_free>:
 8003ed4:	4770      	bx	lr

08003ed6 <HAL_PCDEx_SetConnectionState>:
 8003ed6:	2901      	cmp	r1, #1
 8003ed8:	460a      	mov	r2, r1
 8003eda:	f04f 4090 	mov.w	r0, #1207959552	; 0x48000000
 8003ede:	bf18      	it	ne
 8003ee0:	2200      	movne	r2, #0
 8003ee2:	f44f 6180 	mov.w	r1, #1024	; 0x400
 8003ee6:	f7fd b895 	b.w	8001014 <HAL_GPIO_WritePin>

08003eea <memset>:
 8003eea:	4402      	add	r2, r0
 8003eec:	4603      	mov	r3, r0
 8003eee:	4293      	cmp	r3, r2
 8003ef0:	d100      	bne.n	8003ef4 <memset+0xa>
 8003ef2:	4770      	bx	lr
 8003ef4:	f803 1b01 	strb.w	r1, [r3], #1
 8003ef8:	e7f9      	b.n	8003eee <memset+0x4>
	...

08003efc <__libc_init_array>:
 8003efc:	b570      	push	{r4, r5, r6, lr}
 8003efe:	4d0d      	ldr	r5, [pc, #52]	; (8003f34 <__libc_init_array+0x38>)
 8003f00:	4c0d      	ldr	r4, [pc, #52]	; (8003f38 <__libc_init_array+0x3c>)
 8003f02:	1b64      	subs	r4, r4, r5
 8003f04:	10a4      	asrs	r4, r4, #2
 8003f06:	2600      	movs	r6, #0
 8003f08:	42a6      	cmp	r6, r4
 8003f0a:	d109      	bne.n	8003f20 <__libc_init_array+0x24>
 8003f0c:	4d0b      	ldr	r5, [pc, #44]	; (8003f3c <__libc_init_array+0x40>)
 8003f0e:	4c0c      	ldr	r4, [pc, #48]	; (8003f40 <__libc_init_array+0x44>)
 8003f10:	f000 f818 	bl	8003f44 <_init>
 8003f14:	1b64      	subs	r4, r4, r5
 8003f16:	10a4      	asrs	r4, r4, #2
 8003f18:	2600      	movs	r6, #0
 8003f1a:	42a6      	cmp	r6, r4
 8003f1c:	d105      	bne.n	8003f2a <__libc_init_array+0x2e>
 8003f1e:	bd70      	pop	{r4, r5, r6, pc}
 8003f20:	f855 3b04 	ldr.w	r3, [r5], #4
 8003f24:	4798      	blx	r3
 8003f26:	3601      	adds	r6, #1
 8003f28:	e7ee      	b.n	8003f08 <__libc_init_array+0xc>
 8003f2a:	f855 3b04 	ldr.w	r3, [r5], #4
 8003f2e:	4798      	blx	r3
 8003f30:	3601      	adds	r6, #1
 8003f32:	e7f2      	b.n	8003f1a <__libc_init_array+0x1e>
 8003f34:	08003fc4 	.word	0x08003fc4
 8003f38:	08003fc4 	.word	0x08003fc4
 8003f3c:	08003fc4 	.word	0x08003fc4
 8003f40:	08003fc8 	.word	0x08003fc8

08003f44 <_init>:
 8003f44:	b5f8      	push	{r3, r4, r5, r6, r7, lr}
 8003f46:	bf00      	nop
 8003f48:	bcf8      	pop	{r3, r4, r5, r6, r7}
 8003f4a:	bc08      	pop	{r3}
 8003f4c:	469e      	mov	lr, r3
 8003f4e:	4770      	bx	lr

08003f50 <_fini>:
 8003f50:	b5f8      	push	{r3, r4, r5, r6, r7, lr}
 8003f52:	bf00      	nop
 8003f54:	bcf8      	pop	{r3, r4, r5, r6, r7}
 8003f56:	bc08      	pop	{r3}
 8003f58:	469e      	mov	lr, r3
 8003f5a:	4770      	bx	lr
